Archive member included to satisfy reference by file (symbol)

include_lib/liba/AC521x/rtos.a(os_api.o)
                              obj/Release/cpu/AC521x/setup.o (symbol from plugin) (os_start)
include_lib/liba/AC521x/rtos.a(version.z.o)
                              (lib_rtos_version)
include_lib/liba/AC521x/rtos.a(queue.o)
                              os_api.o (symbol from plugin) (xQueueGenericReset)
include_lib/liba/AC521x/rtos.a(tasks.o)
                              os_api.o (symbol from plugin) (xTaskCreate)
include_lib/liba/AC521x/rtos.a(port.o)
                              tasks.o (symbol from plugin) (pxPortInitialiseStack)
include_lib/liba/AC521x/rtos.a(main.o)
                              tasks.o (symbol from plugin) (vApplicationIdleHook)
include_lib/liba/AC521x/rtos.a(port_asm.o)
                              port.o (symbol from plugin) (vSoftwareInterruptISR)
include_lib/liba/AC521x/rtos.a(croutine.o)
                              queue.o (symbol from plugin) (vCoRoutineAddToDelayedList)
include_lib/liba/AC521x/rtos.a(list.o)
                              queue.o (symbol from plugin) (vListInitialise)
include_lib/liba/AC521x/sd1.a(module_sd1.o)
                              obj/Release/cpu/AC521x/board/board_5211B_dev_20181116.o (symbol from plugin) (sd_dev_ops)
include_lib/liba/AC521x/sd1.a(sdmmc_init.o)
                              module_sd1.o (symbol from plugin) (sd1_init)
include_lib/liba/AC521x/sd1.a(sd_host_args.o)
                              module_sd1.o (symbol from plugin) (sd1_cmd_detect)
include_lib/liba/AC521x/sd1.a(sd_host_init.o)
                              sdmmc_init.o (symbol from plugin) (sd1_host_init)
include_lib/liba/AC521x/sd1.a(sd_host_mount.o)
                              sdmmc_init.o (symbol from plugin) (sd1_mount)
include_lib/liba/AC521x/sd1.a(sd_host_read_end.o)
                              module_sd1.o (symbol from plugin) (sd1_read_end)
include_lib/liba/AC521x/sd1.a(sd_host_unmount.o)
                              module_sd1.o (symbol from plugin) (sd1_unmount)
include_lib/liba/AC521x/sd1.a(sd_host_write.o)
                              module_sd1.o (symbol from plugin) (sd1_flush)
include_lib/liba/AC521x/sd1.a(sd_host_write_end.o)
                              module_sd1.o (symbol from plugin) (sd1_write_end)
include_lib/liba/AC521x/sd1.a(sd_init.o)
                              sd_host_mount.o (symbol from plugin) (sd1_init_card)
include_lib/liba/AC521x/sd1.a(mmc_host_send_rca.o)
                              sd_init.o (symbol from plugin) (mmc1_host_send_rca)
include_lib/liba/AC521x/sd1.a(sd_host_all_send_cid.o)
                              sd_init.o (symbol from plugin) (sd1_host_all_send_cid)
include_lib/liba/AC521x/sd1.a(sd_host_reset.o)
                              sd_init.o (symbol from plugin) (sd1_host_reset)
include_lib/liba/AC521x/sd1.a(sd_host_send_csd.o)
                              sd_init.o (symbol from plugin) (sd1_host_send_csd)
include_lib/liba/AC521x/sd1.a(sd_host_send_if_cond.o)
                              sd_init.o (symbol from plugin) (sd1_host_send_if_cond)
include_lib/liba/AC521x/sd1.a(sd_host_send_rca.o)
                              sd_init.o (symbol from plugin) (sd1_host_send_rca)
include_lib/liba/AC521x/sd1.a(sd_host_stop_trans.o)
                              sd_host_write.o (symbol from plugin) (sd1_host_stop_trans)
include_lib/liba/AC521x/sd1.a(sd_select_card.o)
                              sd_init.o (symbol from plugin) (sd1_select_card)
include_lib/liba/AC521x/sd1.a(sdmmc_det.o)
                              module_sd1.o (symbol from plugin) (sd1_is_online)
include_lib/liba/AC521x/sd1.a(sd_chk_ctl.o)
                              sdmmc_det.o (symbol from plugin) (sd1_chk_ctl)
include_lib/liba/AC521x/sd1.a(sd_host_hw.o)
                              sdmmc_det.o (symbol from plugin) (sd1_cmd_check)
include_lib/liba/AC521x/sd1.a(sd_wait_idle.o)
                              sd_host_mount.o (symbol from plugin) (sd1_wait_idle)
include_lib/liba/AC521x/sd1.a(sd_host_reg.o)
                              sd_host_hw.o (symbol from plugin) (SD1_8CLK_EN)
include_lib/liba/AC521x/sd1.a(sd_send_command.o)
                              sd_host_write.o (symbol from plugin) (sd1_send_command)
include_lib/liba/AC521x/sd1.a(sd_write_start.o)
                              sd_host_write.o (symbol from plugin) (sd1_write_start)
include_lib/liba/AC521x/sd1.a(sd_host_status.o)
                              sd_host_read_end.o (symbol from plugin) (sd1_host_status)
include_lib/liba/AC521x/sd1.a(version.z.o)
                              (lib_sd1_version)
include_lib/liba/AC521x/sd1.a(mango_dev_sd1.o)
                              module_sd1.o (symbol from plugin) (SD1_SEM_INIT)
include_lib/liba/AC521x/sd1.a(sdmmc_host_set_bus_width.o)
                              sdmmc_init.o (symbol from plugin) (sd1_set_bus_width)
include_lib/liba/AC521x/sd1.a(sdmmc_host_set_hispeed.o)
                              sdmmc_init.o (symbol from plugin) (sd1_set_hispeed)
include_lib/liba/AC521x/sd1.a(sd_host_identification.o)
                              sd_init.o (symbol from plugin) (sd1_host_identification)
include_lib/liba/AC521x/sd1.a(sd_host_read.o)
                              sd_host_read_end.o (symbol from plugin) (sd1_read)
include_lib/liba/AC521x/sd1.a(sd_host_timeout.o)
                              sd_host_stop_trans.o (symbol from plugin) (sd1_host_get_jiffies)
include_lib/liba/AC521x/sd1.a(mmc_host_send_op_cond.o)
                              sd_host_identification.o (symbol from plugin) (mmc1_host_send_op_cond)
include_lib/liba/AC521x/sd1.a(mmc_host_set_bus_width.o)
                              sdmmc_host_set_bus_width.o (symbol from plugin) (mmc1_host_set_bus_width)
include_lib/liba/AC521x/sd1.a(mmc_host_set_hispeed.o)
                              sdmmc_host_set_hispeed.o (symbol from plugin) (mmc1_host_set_hispeed)
include_lib/liba/AC521x/sd1.a(mmc_send_ext_csd.o)
                              sdmmc_host_set_bus_width.o (symbol from plugin) (mmc1_send_ext_csd)
include_lib/liba/AC521x/sd1.a(sd_host_sd_status.o)
                              sdmmc_host_set_bus_width.o (symbol from plugin) (sd1_host_sd_status)
include_lib/liba/AC521x/sd1.a(sd_host_send_op_cond.o)
                              sd_host_identification.o (symbol from plugin) (sd1_host_send_op_cond)
include_lib/liba/AC521x/sd1.a(sd_host_set_bus_width.o)
                              sdmmc_host_set_bus_width.o (symbol from plugin) (sd1_host_set_bus_width)
include_lib/liba/AC521x/sd1.a(sd_host_set_hispeed.o)
                              sdmmc_host_set_hispeed.o (symbol from plugin) (sd1_host_set_hispeed)
include_lib/liba/AC521x/sd1.a(sd_host_switch_func.o)
                              sd_host_set_hispeed.o (symbol from plugin) (sd1_host_switch_func)
include_lib/liba/AC521x/sd1.a(sd_send_scr.o)
                              sdmmc_host_set_bus_width.o (symbol from plugin) (sd1_send_scr)
include_lib/liba/AC521x/sd1.a(sd_read_start.o)
                              sd_host_read.o (symbol from plugin) (sd1_read_start)
include_lib/liba/AC521x/sd1.a(sd_host_app_cmd.o)
                              sd_host_sd_status.o (symbol from plugin) (sd1_host_app_cmd)
include_lib/liba/AC521x/ascii.a(ASCII_lib.o)
                              obj/Release/app/car_camera/video_dec.o (symbol from plugin) (ASCII_ToUpper)
include_lib/liba/AC521x/res.a(resfile.o)
                              obj/Release/app/car_camera/video_system_cfg.o (symbol from plugin) (ui_language_set)
include_lib/liba/AC521x/res.a(quicklz.o)
                              resfile.o (symbol from plugin) (qlz_decompress)
include_lib/liba/AC521x/usb.a(usb_hal.o)
                              obj/Release/app/car_camera/usb_host_user.o (symbol from plugin) (user_usb_alloc_ep_buffer)
include_lib/liba/AC521x/usb.a(usb_dev.o)
                              obj/Release/cpu/AC521x/board/board_5211B_dev_20181116.o (symbol from plugin) (usb_dev_ops)
include_lib/liba/AC521x/usb.a(uvc_dev.o)
                              obj/Release/cpu/AC521x/board/board_5211B_dev_20181116.o (symbol from plugin) (uvc_dev_ops)
include_lib/liba/AC521x/usb.a(usb_ep_init.o)
                              usb_hal.o (symbol from plugin) (usb_slave_ep_init)
include_lib/liba/AC521x/usb.a(usb_setup.o)
                              usb_hal.o (symbol from plugin) (ep0_ctrl_transfer)
include_lib/liba/AC521x/usb.a(usb_slave_main.o)
                              usb_dev.o (symbol from plugin) (usb_slave_detect)
include_lib/liba/AC521x/usb.a(hid_descriptor.o)
                              usb_setup.o (symbol from plugin) (hidStringDescriptor)
include_lib/liba/AC521x/usb.a(hid_main.o)
                              usb_setup.o (symbol from plugin) (hid_setup)
include_lib/liba/AC521x/usb.a(msd_main.o)
                              usb_hal.o (symbol from plugin) (mass_storage_run)
include_lib/liba/AC521x/usb.a(uvc_setup.o)
                              usb_setup.o (symbol from plugin) (uvc_setup)
include_lib/liba/AC521x/usb.a(video_descriptor.o)
                              usb_setup.o (symbol from plugin) (videoStringDescriptor)
include_lib/liba/AC521x/usb.a(video_main.o)
                              usb_slave_main.o (symbol from plugin) (usb_video_feature_init)
include_lib/liba/AC521x/usb.a(audio_main.o)
                              usb_slave_main.o (symbol from plugin) (uac_spk_arg_init)
include_lib/liba/AC521x/usb.a(audio_descriptor.o)
                              usb_setup.o (symbol from plugin) (speakerStringDescriptor)
include_lib/liba/AC521x/usb.a(cdc_main.o)
                              usb_setup.o (symbol from plugin) (cdc_setup)
include_lib/liba/AC521x/usb.a(usb_hub.o)
                              usb_hal.o (symbol from plugin) (hub_isr)
include_lib/liba/AC521x/usb.a(usb_core.o)
                              usb_hal.o (symbol from plugin) (host_event_notify)
include_lib/liba/AC521x/usb.a(usb_ctrl_transfer.o)
                              usb_hub.o (symbol from plugin) (usb_control_msg)
include_lib/liba/AC521x/usb.a(usb_descriptor_parser.o)
                              usb_core.o (symbol from plugin) (user_usb_descriptor_parser)
include_lib/liba/AC521x/usb.a(usb_bulk_transfer.o)
                              usb_hal.o (symbol from plugin) (usb_bulk_only_isr)
include_lib/liba/AC521x/usb.a(usb_storage.o)
                              usb_core.o (symbol from plugin) (usb_stor_unmount)
include_lib/liba/AC521x/usb.a(usb_video.o)
                              usb_descriptor_parser.o (symbol from plugin) (usb_uvc_parser)
include_lib/liba/AC521x/usb.a(usb_wifi.o)
                              usb_core.o (symbol from plugin) (husb_wifi_init)
include_lib/liba/AC521x/usb.a(usb_host_cdc.o)
                              usb_core.o (symbol from plugin) (usb_cdc_init)
include_lib/liba/AC521x/usb.a(usb_scsi_upgrade.o)
                              obj/Release/app/uvc_53x_upgrade.o (symbol from plugin) (usb_host_slave_enter_upgrade)
include_lib/liba/AC521x/usb.a(parse_ufw.o)
                              usb_scsi_upgrade.o (symbol from plugin) (parse_ufw)
include_lib/liba/AC521x/usb.a(parse_bfu.o)
                              usb_scsi_upgrade.o (symbol from plugin) (parse_bfu)
include_lib/liba/AC521x/usb.a(core_descriptor.o)
                              usb_setup.o (symbol from plugin) (usb_desc_init)
include_lib/liba/AC521x/usb.a(msd_descriptor.o)
                              core_descriptor.o (symbol from plugin) (sMassDescriptor)
include_lib/liba/AC521x/usb.a(cdc_descriptor.o)
                              core_descriptor.o (symbol from plugin) (cdc_virtual_comport_descriptor_init)
include_lib/liba/AC521x/usb.a(encrypt_api.o)
                              parse_ufw.o (symbol from plugin) (decode_data_by_user_key)
include_lib/liba/AC521x/spec_uart.a(spec_uart.o)
                              obj/Release/cpu/AC521x/board/board_5211B_dev_20181116.o (symbol from plugin) (uart_dev_ops)
include_lib/liba/AC521x/usb_cam_dev.a(usb_cam_dev.o)
                              obj/Release/cpu/AC521x/board/board_5211B_dev_20181116.o (symbol from plugin) (usb_cam_dev_ops)
include_lib/liba/AC521x/fs.a(vfs.o)
                              obj/Release/app/car_camera/app_main.o (symbol from plugin) (mount)
include_lib/liba/AC521x/fs.a(ff_api.o)
                              obj/Release/app/car_camera/device_mount.o (symbol from plugin) (fatfs_set_device)
include_lib/liba/AC521x/fs.a(ff.o)
                              ff_api.o (symbol from plugin) (f_mount)
include_lib/liba/AC521x/fs.a(ccsbcs.o)
                              ff.o (symbol from plugin) (ff_convert)
include_lib/liba/AC521x/fs.a(version.z.o)
                              (lib_fs_version)
include_lib/liba/AC521x/fs.a(diskio.o)
                              ff.o (symbol from plugin) (disk_status)
include_lib/liba/AC521x/upgrade.a(upgrade_server.o)
                              obj/Release/app/car_camera/upgrade.o (symbol from plugin) (upgrade_server_version_check)
include_lib/liba/AC521x/server.a(server_core.o)
                              upgrade_server.o (symbol from plugin) (server_req_complete)
include_lib/liba/AC521x/ui_server.a(ui_server.o)
                              obj/Release/app/version.o (symbol from plugin) (ui_server_version)
include_lib/liba/AC521x/video_engine_server.a(video_engine_server.o)
                              obj/Release/app/version.o (symbol from plugin) (video_engine_server_version)
include_lib/liba/AC521x/video_engine_server.a(motion_detect.o)
                              video_engine_server.o (symbol from plugin) (ve_motion_detect_module)
include_lib/liba/AC521x/video_engine_server.a(custom_module_wrap.o)
                              video_engine_server.o (symbol from plugin) (ve_custom_module)
include_lib/liba/AC521x/video_engine_server.a(custom_module.o)
                              custom_module_wrap.o (symbol from plugin) (custom_module_init)
include_lib/liba/AC521x/video_engine_server.a(lane_detect_v2_wrap.o)
                              video_engine_server.o (symbol from plugin) (ve_lane_detect_module)
include_lib/liba/AC521x/video_engine_server.a(lane_detect_v2_lane.o)
                              lane_detect_v2_wrap.o (symbol from plugin) (lane_detect_v2_get_roi_top)
include_lib/liba/AC521x/video_engine_server.a(lane_detect_v2_lsd.o)
                              lane_detect_v2_lane.o (symbol from plugin) (lane_detect_v2_lsd)
include_lib/liba/AC521x/video_engine_server.a(lane_detect_v2_sobel.o)
                              lane_detect_v2_lane.o (symbol from plugin) (sobel_grad_direction)
include_lib/liba/AC521x/video_engine_server.a(lane_detect_v2_utils.o)
                              lane_detect_v2_lane.o (symbol from plugin) (lane_detect_v2_common_sqrt)
include_lib/liba/AC521x/video_engine_server.a(lane_detect_v2_canny.o)
                              lane_detect_v2_lane.o (symbol from plugin) (lane_detect_v2_canny_t)
include_lib/liba/AC521x/video_engine_server.a(lane_detect_v2_get_theta.o)
                              lane_detect_v2_lane.o (symbol from plugin) (lane_detect_v2_get_tan)
include_lib/liba/AC521x/video_dec_server.a(video_decode_server.o)
                              obj/Release/app/version.o (symbol from plugin) (video_dec_server_version)
include_lib/liba/AC521x/video_dec_server.a(video_unpkg_server.o)
                              video_decode_server.o (symbol from plugin) (vunpkg_server_version)
include_lib/liba/AC521x/video_dec_server.a(avi_unpkg_if.o)
                              video_unpkg_server.o (symbol from plugin) (get_avi_unpkg_ops)
include_lib/liba/AC521x/video_dec_server.a(version.z.o)
                              (lib_video_dec_server_version)
include_lib/liba/AC521x/video_dec_server.a(avi_unpkg.o)
                              avi_unpkg_if.o (symbol from plugin) (avi_unpkg_ctrl_start)
include_lib/liba/AC521x/video_dec_server.a(avi_unpkg_aud.o)
                              avi_unpkg.o (symbol from plugin) (avi_unpkg_search_aframe)
include_lib/liba/AC521x/video_dec_server.a(avi_unpkg_dev.o)
                              avi_unpkg.o (symbol from plugin) (avi_unpkg_fs_init)
include_lib/liba/AC521x/video_dec_server.a(avi_unpkg_head.o)
                              avi_unpkg.o (symbol from plugin) (avi_unpkg_head)
include_lib/liba/AC521x/video_dec_server.a(avi_uppkg_vid.o)
                              avi_unpkg.o (symbol from plugin) (avi_unpkg_jump_vframe)
include_lib/liba/AC521x/vm.a(vm_api.o)
                              obj/Release/cpu/AC521x/board/board_5211B_dev_20181116.o (symbol from plugin) (vm_dev_ops)
include_lib/liba/AC521x/vm.a(version.z.o)
                              (lib_vm_version)
include_lib/liba/AC521x/vm.a(vm.o)
                              vm_api.o (symbol from plugin) (vm_init)
include_lib/liba/AC521x/audio_server.a(audio_server.o)
                              obj/Release/app/version.o (symbol from plugin) (audio_server_version)
include_lib/liba/AC521x/audio_server.a(pcm_decoder.o)
                              audio_server.o (symbol from plugin) (pcm_decoder_enable)
include_lib/liba/AC521x/audio_server.a(pcm_encoder.o)
                              audio_server.o (symbol from plugin) (pcm_enc_enable)
include_lib/liba/AC521x/audio_server.a(adpcm_decoder.o)
                              audio_server.o (symbol from plugin) (adpcm_decoder_enable)
include_lib/liba/AC521x/audio_server.a(spx_package.o)
                              audio_server.o (symbol from plugin) (spx_pkg_enable)
include_lib/liba/AC521x/audio_server.a(amr_package.o)
                              audio_server.o (symbol from plugin) (amr_pkg_enable)
include_lib/liba/AC521x/audio_server.a(opus_package.o)
                              audio_server.o (symbol from plugin) (opus_pkg_enable)
include_lib/liba/AC521x/audio_server.a(version.z.o)
                              (lib_audio_server_version)
include_lib/liba/AC521x/usb_server.a(usb_server.o)
                              (--whole-archive)
include_lib/liba/AC521x/usb_server.a(mass_storage.o)
                              (--whole-archive)
include_lib/liba/AC521x/usb_server.a(uvc_camera.o)
                              (--whole-archive)
include_lib/liba/AC521x/usb_server.a(uac_mic_gadget.o)
                              (--whole-archive)
include_lib/liba/AC521x/usb_server.a(uac_spk_gadget.o)
                              (--whole-archive)
include_lib/liba/AC521x/usb_server.a(hid_gadget.o)
                              (--whole-archive)
include_lib/liba/AC521x/usb_server.a(cdc_gadget.o)
                              (--whole-archive)
include_lib/liba/AC521x/usb_server.a(isp_tool.o)
                              (--whole-archive)
include_lib/liba/AC521x/usb_server.a(isd_tool.o)
                              (--whole-archive)
include_lib/liba/AC521x/usb_server.a(udef_tool.o)
                              (--whole-archive)
include_lib/liba/AC521x/usb_server.a(screen_tool.o)
                              (--whole-archive)
include_lib/liba/AC521x/usb_server.a(version.z.o)
                              (--whole-archive)
include_lib/liba/AC521x/aac_enc_lib.a(AAC_E_SAMPLES.o)
                              (--whole-archive)
include_lib/liba/AC521x/aac_enc_lib.a(aac_rom.o)
                              (--whole-archive)
include_lib/liba/AC521x/aac_enc_lib.a(aacenc.o)
                              (--whole-archive)
include_lib/liba/AC521x/aac_enc_lib.a(aacenc_core.o)
                              (--whole-archive)
include_lib/liba/AC521x/aac_enc_lib.a(adj_thr.o)
                              (--whole-archive)
include_lib/liba/AC521x/aac_enc_lib.a(band_nrg.o)
                              (--whole-archive)
include_lib/liba/AC521x/aac_enc_lib.a(basicop2.o)
                              (--whole-archive)
include_lib/liba/AC521x/aac_enc_lib.a(bit_cnt.o)
                              (--whole-archive)
include_lib/liba/AC521x/aac_enc_lib.a(bitbuffer.o)
                              (--whole-archive)
include_lib/liba/AC521x/aac_enc_lib.a(bitenc.o)
                              (--whole-archive)
include_lib/liba/AC521x/aac_enc_lib.a(block_switch.o)
                              (--whole-archive)
include_lib/liba/AC521x/aac_enc_lib.a(channel_map.o)
                              (--whole-archive)
include_lib/liba/AC521x/aac_enc_lib.a(dyn_bits.o)
                              (--whole-archive)
include_lib/liba/AC521x/aac_enc_lib.a(grp_data.o)
                              (--whole-archive)
include_lib/liba/AC521x/aac_enc_lib.a(interface.o)
                              (--whole-archive)
include_lib/liba/AC521x/aac_enc_lib.a(line_pe.o)
                              (--whole-archive)
include_lib/liba/AC521x/aac_enc_lib.a(ms_stereo.o)
                              (--whole-archive)
include_lib/liba/AC521x/aac_enc_lib.a(oper_32b.o)
                              (--whole-archive)
include_lib/liba/AC521x/aac_enc_lib.a(pre_echo_control.o)
                              (--whole-archive)
include_lib/liba/AC521x/aac_enc_lib.a(psy_configuration.o)
                              (--whole-archive)
include_lib/liba/AC521x/aac_enc_lib.a(psy_main.o)
                              (--whole-archive)
include_lib/liba/AC521x/aac_enc_lib.a(qc_main.o)
                              (--whole-archive)
include_lib/liba/AC521x/aac_enc_lib.a(quantize.o)
                              (--whole-archive)
include_lib/liba/AC521x/aac_enc_lib.a(sf_estim.o)
                              (--whole-archive)
include_lib/liba/AC521x/aac_enc_lib.a(spreading.o)
                              (--whole-archive)
include_lib/liba/AC521x/aac_enc_lib.a(stat_bits.o)
                              (--whole-archive)
include_lib/liba/AC521x/aac_enc_lib.a(transform.o)
                              (--whole-archive)
include_lib/liba/AC521x/aac_enc_lib.a(version.o)
                              (--whole-archive)
include_lib/liba/AC521x/video_rec_server.a(video_server.o)
                              (--whole-archive)
include_lib/liba/AC521x/video_rec_server.a(video_pkg_server.o)
                              (--whole-archive)
include_lib/liba/AC521x/video_rec_server.a(avi_pkg_if.o)
                              (--whole-archive)
include_lib/liba/AC521x/video_rec_server.a(avi_pkg.o)
                              (--whole-archive)
include_lib/liba/AC521x/video_rec_server.a(avi_pkg_dev.o)
                              (--whole-archive)
include_lib/liba/AC521x/video_rec_server.a(avi_pkg_head.o)
                              (--whole-archive)
include_lib/liba/AC521x/video_rec_server.a(avi_pkg_idx.o)
                              (--whole-archive)
include_lib/liba/AC521x/video_rec_server.a(mov_pkg_if.o)
                              (--whole-archive)
include_lib/liba/AC521x/video_rec_server.a(mov_pkg_idx.o)
                              (--whole-archive)
include_lib/liba/AC521x/video_rec_server.a(mov_pkg_dev.o)
                              (--whole-archive)
include_lib/liba/AC521x/video_rec_server.a(mov_pkg.o)
                              (--whole-archive)
include_lib/liba/AC521x/video_rec_server.a(mp4_pkg_if.o)
                              (--whole-archive)
include_lib/liba/AC521x/video_rec_server.a(mp4_pkg_box.o)
                              (--whole-archive)
include_lib/liba/AC521x/video_rec_server.a(mp4_pkg_media.o)
                              (--whole-archive)
include_lib/liba/AC521x/video_rec_server.a(mp4_pkg_fs.o)
                              (--whole-archive)
include_lib/liba/AC521x/video_rec_server.a(mp4_pkg.o)
                              (--whole-archive)
include_lib/liba/AC521x/video_rec_server.a(version.z.o)
                              (--whole-archive)
include_lib/liba/AC521x/dev.a(device_api.o)
                              (--whole-archive)
include_lib/liba/AC521x/dev.a(iic.o)
                              (--whole-archive)
include_lib/liba/AC521x/dev.a(software_iic.o)
                              (--whole-archive)
include_lib/liba/AC521x/dev.a(spiflash.o)
                              (--whole-archive)
include_lib/liba/AC521x/dev.a(videobuf.o)
                              (--whole-archive)
include_lib/liba/AC521x/dev.a(psram.o)
                              (--whole-archive)
include_lib/liba/AC521x/audio_dev.a(version.o)
                              (--whole-archive)
include_lib/liba/AC521x/audio_dev.a(audio_dev.o)
                              (--whole-archive)
include_lib/liba/AC521x/audio_dev.a(version.z.o)
                              (--whole-archive)
include_lib/liba/AC521x/video_dev.a(fbmem.o)
                              (--whole-archive)
include_lib/liba/AC521x/video_dev.a(version.o)
                              (--whole-archive)
include_lib/liba/AC521x/video_dev.a(video_device.o)
                              (--whole-archive)
include_lib/liba/AC521x/video_dev.a(camera_driver.o)
                              (--whole-archive)
include_lib/liba/AC521x/video_dev.a(version.z.o)
                              (--whole-archive)
include_lib/liba/AC521x/ui.a(window.o)
                              (--whole-archive)
include_lib/liba/AC521x/ui.a(layer.o)
                              (--whole-archive)
include_lib/liba/AC521x/ui.a(layout.o)
                              (--whole-archive)
include_lib/liba/AC521x/ui.a(ui_api.o)
                              (--whole-archive)
include_lib/liba/AC521x/ui.a(ui_battery.o)
                              (--whole-archive)
include_lib/liba/AC521x/ui.a(ui_button.o)
                              (--whole-archive)
include_lib/liba/AC521x/ui.a(ui_camera.o)
                              (--whole-archive)
include_lib/liba/AC521x/ui.a(ui_core.o)
                              (--whole-archive)
include_lib/liba/AC521x/ui.a(ui_grid.o)
                              (--whole-archive)
include_lib/liba/AC521x/ui.a(ui_p.o)
                              (--whole-archive)
include_lib/liba/AC521x/ui.a(ui_pic.o)
                              (--whole-archive)
include_lib/liba/AC521x/ui.a(ui_text.o)
                              (--whole-archive)
include_lib/liba/AC521x/ui.a(ui_time.o)
                              (--whole-archive)
include_lib/liba/AC521x/ui.a(ui_animation.o)
                              (--whole-archive)
include_lib/liba/AC521x/ui.a(ui_player.o)
                              (--whole-archive)
include_lib/liba/AC521x/ui.a(ui_watch.o)
                              (--whole-archive)
include_lib/liba/AC521x/ui.a(ui_slider.o)
                              (--whole-archive)
include_lib/liba/AC521x/ui.a(ui_file_browser.o)
                              (--whole-archive)
include_lib/liba/AC521x/ui.a(ui_file_attrs.o)
                              (--whole-archive)
include_lib/liba/AC521x/ui.a(ui_paint.o)
                              (--whole-archive)
include_lib/liba/AC521x/ui.a(ui_operate.o)
                              (--whole-archive)
include_lib/liba/AC521x/ui.a(version.z.o)
                              (--whole-archive)
include_lib/liba/AC521x/sys.a(index.o)
                              (--whole-archive)
include_lib/liba/AC521x/sys.a(version.o)
                              (--whole-archive)
include_lib/liba/AC521x/sys.a(app_core.o)
                              (--whole-archive)
include_lib/liba/AC521x/sys.a(event.o)
                              (--whole-archive)
include_lib/liba/AC521x/sys.a(init.o)
                              (--whole-archive)
include_lib/liba/AC521x/sys.a(task.o)
                              (--whole-archive)
include_lib/liba/AC521x/sys.a(timer.o)
                              (--whole-archive)
include_lib/liba/AC521x/sys.a(key_driver.o)
                              (--whole-archive)
include_lib/liba/AC521x/sys.a(wait_completion.o)
                              (--whole-archive)
include_lib/liba/AC521x/sys.a(database.o)
                              (--whole-archive)
include_lib/liba/AC521x/sys.a(system_check.o)
                              (--whole-archive)
include_lib/liba/AC521x/sys.a(power_manage.o)
                              (--whole-archive)
include_lib/liba/AC521x/cpu.a(version.o)
                              (--whole-archive)
include_lib/liba/AC521x/cpu.a(iis.o)
                              (--whole-archive)
include_lib/liba/AC521x/cpu.a(adc.o)
                              (--whole-archive)
include_lib/liba/AC521x/cpu.a(dac.o)
                              (--whole-archive)
include_lib/liba/AC521x/cpu.a(subdevice_dac.o)
                              (--whole-archive)
include_lib/liba/AC521x/cpu.a(clock.o)
                              (--whole-archive)
include_lib/liba/AC521x/cpu.a(crc16.o)
                              (--whole-archive)
include_lib/liba/AC521x/cpu.a(dma.o)
                              (--whole-archive)
include_lib/liba/AC521x/cpu.a(uart.o)
                              (--whole-archive)
include_lib/liba/AC521x/cpu.a(hwi.o)
                              (--whole-archive)
include_lib/liba/AC521x/cpu.a(gpio.o)
                              (--whole-archive)
include_lib/liba/AC521x/cpu.a(port_waked_up.o)
                              (--whole-archive)
include_lib/liba/AC521x/cpu.a(delay.o)
                              (--whole-archive)
include_lib/liba/AC521x/cpu.a(rtc.o)
                              (--whole-archive)
include_lib/liba/AC521x/cpu.a(timer.o)
                              (--whole-archive)
include_lib/liba/AC521x/cpu.a(iic.o)
                              (--whole-archive)
include_lib/liba/AC521x/cpu.a(sd.o)
                              (--whole-archive)
include_lib/liba/AC521x/cpu.a(cache.o)
                              (--whole-archive)
include_lib/liba/AC521x/cpu.a(spi0.o)
                              (--whole-archive)
include_lib/liba/AC521x/cpu.a(pwm.o)
                              (--whole-archive)
include_lib/liba/AC521x/cpu.a(startup.o)
                              (--whole-archive)
include_lib/liba/AC521x/cpu.a(version.z.o)
                              (--whole-archive)
include_lib/liba/AC521x/cpu_disp.a(pap.o)
                              (--whole-archive)
include_lib/liba/AC521x/cpu_disp.a(ui_platform.o)
                              (--whole-archive)
include_lib/liba/AC521x/cpu_disp.a(imr.o)
                              (--whole-archive)
include_lib/liba/AC521x/cpu_disp.a(imd.o)
                              (--whole-archive)
include_lib/liba/AC521x/cpu_disp.a(fbvirtual.o)
                              (--whole-archive)
include_lib/liba/AC521x/cpu_disp.a(lcd_driver.o)
                              (--whole-archive)
include_lib/liba/AC521x/cpu_disp.a(imb.o)
                              (--whole-archive)
include_lib/liba/AC521x/cpu_disp.a(dsi.o)
                              (--whole-archive)
include_lib/liba/AC521x/cpu_disp.a(dsi_packet.o)
                              (--whole-archive)
include_lib/liba/AC521x/cpu_disp.a(version.z.o)
                              (--whole-archive)
include_lib/liba/AC521x/cpu_video.a(subdevice_uvc.o)
                              (--whole-archive)
include_lib/liba/AC521x/cpu_video.a(imc.o)
                              (--whole-archive)
include_lib/liba/AC521x/cpu_video.a(video_ram.o)
                              (--whole-archive)
include_lib/liba/AC521x/cpu_video.a(jpeg_codec.o)
                              (--whole-archive)
include_lib/liba/AC521x/cpu_video.a(jpeg_encoder.o)
                              (--whole-archive)
include_lib/liba/AC521x/cpu_video.a(jpeg_decoder.o)
                              (--whole-archive)
include_lib/liba/AC521x/cpu_video.a(jpeg_dynamic_huffman.o)
                              (--whole-archive)
include_lib/liba/AC521x/cpu_video.a(jpeg_abr.o)
                              (--whole-archive)
include_lib/liba/AC521x/cpu_video.a(subdevice_djpeg.o)
                              (--whole-archive)
include_lib/liba/AC521x/cpu_video.a(image_encode.o)
                              (--whole-archive)
include_lib/liba/AC521x/cpu_video.a(camera_effect.o)
                              (--whole-archive)
include_lib/liba/AC521x/cpu_video.a(video_fb.o)
                              (--whole-archive)
include_lib/liba/AC521x/cpu_video.a(osd_time.o)
                              (--whole-archive)
include_lib/liba/AC521x/cpu_video.a(video.o)
                              (--whole-archive)
include_lib/liba/AC521x/cpu_video.a(version.z.o)
                              (--whole-archive)
include_lib/liba/AC521x/isp.a(version.o)
                              (--whole-archive)
include_lib/liba/AC521x/isp.a(subdevice_isp.o)
                              (--whole-archive)
include_lib/liba/AC521x/isp.a(fix16.o)
                              (--whole-archive)
include_lib/liba/AC521x/isp.a(fix16_exp.o)
                              (--whole-archive)
include_lib/liba/AC521x/isp.a(fix16_sqrt.o)
                              (--whole-archive)
include_lib/liba/AC521x/isp.a(fix16_str.o)
                              (--whole-archive)
include_lib/liba/AC521x/isp.a(fix16_trig.o)
                              (--whole-archive)
include_lib/liba/AC521x/isp.a(adjustment.o)
                              (--whole-archive)
include_lib/liba/AC521x/isp.a(blc.o)
                              (--whole-archive)
include_lib/liba/AC521x/isp.a(ccm.o)
                              (--whole-archive)
include_lib/liba/AC521x/isp.a(chroma.o)
                              (--whole-archive)
include_lib/liba/AC521x/isp.a(debugutils.o)
                              (--whole-archive)
include_lib/liba/AC521x/isp.a(dpc.o)
                              (--whole-archive)
include_lib/liba/AC521x/isp.a(drc.o)
                              (--whole-archive)
include_lib/liba/AC521x/isp.a(gamma.o)
                              (--whole-archive)
include_lib/liba/AC521x/isp.a(isc.o)
                              (--whole-archive)
include_lib/liba/AC521x/isp.a(lsc.o)
                              (--whole-archive)
include_lib/liba/AC521x/isp.a(misc.o)
                              (--whole-archive)
include_lib/liba/AC521x/isp.a(nr.o)
                              (--whole-archive)
include_lib/liba/AC521x/isp.a(nr3d.o)
                              (--whole-archive)
include_lib/liba/AC521x/isp.a(sharpen.o)
                              (--whole-archive)
include_lib/liba/AC521x/isp.a(statistic.o)
                              (--whole-archive)
include_lib/liba/AC521x/isp.a(wb.o)
                              (--whole-archive)
include_lib/liba/AC521x/isp.a(isp_ae.o)
                              (--whole-archive)
include_lib/liba/AC521x/isp.a(isp_awb.o)
                              (--whole-archive)
include_lib/liba/AC521x/isp.a(isp_customize.o)
                              (--whole-archive)
include_lib/liba/AC521x/isp.a(isp_dev0.o)
                              (--whole-archive)
include_lib/liba/AC521x/isp.a(isp_dev1.o)
                              (--whole-archive)
include_lib/liba/AC521x/isp.a(isp_if.o)
                              (--whole-archive)
include_lib/liba/AC521x/isp.a(isp_io.o)
                              (--whole-archive)
include_lib/liba/AC521x/isp.a(isp_isr.o)
                              (--whole-archive)
include_lib/liba/AC521x/isp.a(isp_pipeline.o)
                              (--whole-archive)
include_lib/liba/AC521x/isp.a(isp_sen_param.o)
                              (--whole-archive)
include_lib/liba/AC521x/isp.a(isp_tables.o)
                              (--whole-archive)
include_lib/liba/AC521x/isp.a(isp_task.o)
                              (--whole-archive)
include_lib/liba/AC521x/isp.a(isp_tuning.o)
                              (--whole-archive)
include_lib/liba/AC521x/isp.a(isp_utils.o)
                              (--whole-archive)
include_lib/liba/AC521x/isp.a(sensor_dev.o)
                              (--whole-archive)
include_lib/liba/AC521x/isp.a(isp_motion_detect.o)
                              (--whole-archive)
include_lib/liba/AC521x/isp.a(isp_ae_alg.o)
                              (--whole-archive)
include_lib/liba/AC521x/isp.a(isp_awb_alg.o)
                              (--whole-archive)
include_lib/liba/AC521x/isp.a(isp_awb_alg_gw1.o)
                              (--whole-archive)
include_lib/liba/AC521x/isp.a(isp_awb_alg_ct2.o)
                              (--whole-archive)
include_lib/liba/AC521x/isp.a(isp_drc.o)
                              (--whole-archive)
include_lib/liba/AC521x/isp.a(median_filter.o)
                              (--whole-archive)
include_lib/liba/AC521x/isp.a(average_filter.o)
                              (--whole-archive)
include_lib/liba/AC521x/isp.a(isp_contrast.o)
                              (--whole-archive)
include_lib/liba/AC521x/isp.a(isp_params_smooth.o)
                              (--whole-archive)
include_lib/liba/AC521x/mm.a(version.o)
                              (--whole-archive)
include_lib/liba/AC521x/mm.a(mem_heap.o)
                              (--whole-archive)
include_lib/liba/AC521x/mm.a(mem_leak_test.o)
                              (--whole-archive)
include_lib/liba/AC521x/mm.a(version.z.o)
                              (--whole-archive)
include_lib/liba/AC521x/libdetect_face.a(face_detect.o)
                              (--whole-archive)
include_lib/liba/AC521x/lib_usb_syn.a(usb_syn.o)
                              (--whole-archive)
include_lib/liba/AC521x/lib_usb_syn.a(version.z.o)
                              (--whole-archive)
include_lib/liba/AC521x/printf.a(printf-stdarg.o)
                              include_lib/liba/AC521x/aac_enc_lib.a(AAC_E_SAMPLES.o) (puts)
include_lib/liba/AC521x/printf.a(puthex.o)
                              obj/Release/app/car_camera/play_usb_mic.o (symbol from plugin) (putchar)
include_lib/liba/AC521x/printf.a(log.o)
                              obj/Release/app/car_camera/app_database.o (symbol from plugin) (log_flush)
include_lib/liba/AC521x/printf.a(fcvt.o)
                              printf-stdarg.o (symbol from plugin) (ecvtbuf)
include_lib/liba/AC521x/lbuf.a(lbuf.o)
                              usb_hal.o (symbol from plugin) (lbuf_init)
include_lib/liba/AC521x/lbuf.a(dev_lbuf.o)
                              videobuf.o (symbol from plugin) (dlbuf_init)
include_lib/liba/AC521x/cbuf.a(circular_buf.o)
                              obj/Release/app/car_camera/play_usb_mic.o (symbol from plugin) (cbuf_read)
include_lib/liba/AC521x/cbuf.a(version.z.o)
                              (lib_cbuf_version)
include_lib/liba/AC521x/libc.a(lib_a-memcmp.o)
                              obj/Release/app/car_camera/video_dec_cfg.o (symbol from plugin) (memcmp)
include_lib/liba/AC521x/libc.a(lib_a-memcpy.o)
                              include_lib/liba/AC521x/aac_enc_lib.a(aacenc_core.o) (memcpy)
include_lib/liba/AC521x/libc.a(lib_a-memmem.o)
                              pcm_decoder.o (symbol from plugin) (memmem)
include_lib/liba/AC521x/libc.a(lib_a-memset.o)
                              include_lib/liba/AC521x/aac_enc_lib.a(AAC_E_SAMPLES.o) (memset)
include_lib/liba/AC521x/libc.a(lib_a-strcat.o)
                              obj/Release/app/car_camera/ui/style_JL02/ui_action_dec.o (symbol from plugin) (strcat)
include_lib/liba/AC521x/libc.a(lib_a-strchr.o)
                              obj/Release/app/car_camera/auto_test.o (symbol from plugin) (strchr)
include_lib/liba/AC521x/libc.a(lib_a-strcmp.o)
                              obj/Release/app/car_camera/app_database.o (symbol from plugin) (strcmp)
include_lib/liba/AC521x/libc.a(lib_a-strcpy.o)
                              obj/Release/app/car_camera/ui/style_JL02/ui_action_dec.o (symbol from plugin) (strcpy)
include_lib/liba/AC521x/libc.a(lib_a-strlen.o)
                              obj/Release/app/car_camera/auto_test.o (symbol from plugin) (strlen)
include_lib/liba/AC521x/libc.a(lib_a-strncmp.o)
                              obj/Release/app/car_camera/backlight.o (symbol from plugin) (strncmp)
include_lib/liba/AC521x/libc.a(lib_a-strncpy.o)
                              obj/Release/cpu/AC521x/power_inf.o (symbol from plugin) (strncpy)
include_lib/liba/AC521x/libc.a(lib_a-strstr.o)
                              obj/Release/app/car_camera/auto_test.o (symbol from plugin) (strstr)
include_lib/liba/AC521x/libc.a(lib_a-strtoul.o)
                              rtc.o (symbol from plugin) (strtoul)
include_lib/liba/AC521x/libc.a(lib_a-ctype_.o)
                              include_lib/liba/AC521x/libc.a(lib_a-strtoul.o) (__ctype_ptr__)
include_lib/liba/AC521x/libc.a(lib_a-impure.o)
                              include_lib/liba/AC521x/libc.a(lib_a-strtoul.o) (_impure_ptr)
include_lib/liba/AC521x/libm.a(lib_a-s_modf.o)
                              fcvt.o (symbol from plugin) (modf)
include_lib/liba/AC521x/xd_tp.a(mauart.o)
                              obj/Release/app/car_camera/app_main.o (symbol from plugin) (uart_receive_callback)
include_lib/liba/AC521x/xd_tp.a(touch_panel_manager.o)
                              obj/Release/cpu/AC521x/board/board_5211B_dev_20181116.o (symbol from plugin) (touch_panel_dev_ops)
include_lib/liba/AC521x/res.a(ascii.o)
                              ui_platform.o (symbol from plugin) (font_ascii_init)
include_lib/liba/AC521x/fs.a(sdfile.o)
                              init.o (symbol from plugin) (sdfile_version_check)
include_lib/liba/AC521x/fs.a(devfs.o)
                              init.o (symbol from plugin) (devfs_version_check)
include_lib/liba/AC521x/fs.a(fat_compact.o)
                              init.o (symbol from plugin) (fatfs_version_check)
include_lib/liba/AC521x/fs.a(dev_Cache.o)
                              fat_compact.o (symbol from plugin) (dev_CacheInit)
include_lib/liba/AC521x/fs.a(fat_Dir.o)
                              fat_compact.o (symbol from plugin) (fatDir_InitHook)
include_lib/liba/AC521x/fs.a(fat_Table.o)
                              fat_Dir.o (symbol from plugin) (fatTable_AllocClust)
include_lib/liba/AC521x/fs.a(ff_api.o)
                              fat_compact.o (symbol from plugin) (ff_scan)
include_lib/liba/AC521x/fs.a(fs_api.o)
                              fat_compact.o (symbol from plugin) (fs_GetLastErr)
include_lib/liba/AC521x/fs.a(fat_Mount.o)
                              fs_api.o (symbol from plugin) (ld_word)
include_lib/liba/AC521x/fs.a(tff.o)
                              fat_Dir.o (symbol from plugin) (clust2sect)
include_lib/liba/AC521x/fs.a(ramfs.o)
                              init.o (symbol from plugin) (ramfs_version_check)
include_lib/liba/AC521x/font.a(font_textout.o)
                              ui_platform.o (symbol from plugin) (font_open)
include_lib/liba/AC521x/font.a(font_big5.o)
                              font_textout.o (symbol from plugin) (InitFont_BIG5)
include_lib/liba/AC521x/font.a(font_gbk.o)
                              font_textout.o (symbol from plugin) (InitFont_GBK)
include_lib/liba/AC521x/font.a(font_ksc.o)
                              font_textout.o (symbol from plugin) (InitFont_KSC)
include_lib/liba/AC521x/font.a(font_other_language.o)
                              font_textout.o (symbol from plugin) (InitFont_OtherLanguage)
include_lib/liba/AC521x/font.a(font_sdfs.o)
                              font_big5.o (symbol from plugin) (font_sd_fopen)
include_lib/liba/AC521x/font.a(font_sjis.o)
                              font_textout.o (symbol from plugin) (InitFont_SJIS)
include_lib/liba/AC521x/font.a(font_ascii.o)
                              font_big5.o (symbol from plugin) (InitFont_ASCII)
C:\JL\pi32\pi32v2-lib\libcompiler-rt.a(subdf3.o)
                              include_lib/liba/AC521x/libm.a(lib_a-s_modf.o) (__subdf3)
C:\JL\pi32\pi32v2-lib\libcompiler-rt.a(adddf3.o)
                              C:\JL\pi32\pi32v2-lib\libcompiler-rt.a(subdf3.o) (__adddf3)
include_lib/liba/AC521x/libc.a(lib_a-memmove.o)
                              cpu\AC521x\tools\main.or32.o (memmove)
C:\JL\pi32\pi32v2-lib\libcompiler-rt.a(addsf3.o)
                              cpu\AC521x\tools\main.or32.o (__addsf3)
C:\JL\pi32\pi32v2-lib\libcompiler-rt.a(comparedf2.o)
                              cpu\AC521x\tools\main.or32.o (__eqdf2)
C:\JL\pi32\pi32v2-lib\libcompiler-rt.a(comparesf2.o)
                              cpu\AC521x\tools\main.or32.o (__gesf2)
C:\JL\pi32\pi32v2-lib\libcompiler-rt.a(divdf3.o)
                              cpu\AC521x\tools\main.or32.o (__divdf3)
C:\JL\pi32\pi32v2-lib\libcompiler-rt.a(divsf3.o)
                              cpu\AC521x\tools\main.or32.o (__divsf3)
C:\JL\pi32\pi32v2-lib\libcompiler-rt.a(extendsfdf2.o)
                              cpu\AC521x\tools\main.or32.o (__extendsfdf2)
C:\JL\pi32\pi32v2-lib\libcompiler-rt.a(fixdfsi.o)
                              cpu\AC521x\tools\main.or32.o (__fixdfsi)
C:\JL\pi32\pi32v2-lib\libcompiler-rt.a(fixsfsi.o)
                              cpu\AC521x\tools\main.or32.o (__fixsfsi)
C:\JL\pi32\pi32v2-lib\libcompiler-rt.a(fixunsdfsi.o)
                              cpu\AC521x\tools\main.or32.o (__fixunsdfsi)
C:\JL\pi32\pi32v2-lib\libcompiler-rt.a(fixunssfsi.o)
                              cpu\AC521x\tools\main.or32.o (__fixunssfsi)
C:\JL\pi32\pi32v2-lib\libcompiler-rt.a(floatsidf.o)
                              cpu\AC521x\tools\main.or32.o (__floatsidf)
C:\JL\pi32\pi32v2-lib\libcompiler-rt.a(floatunsisf.o)
                              cpu\AC521x\tools\main.or32.o (__floatunsisf)
C:\JL\pi32\pi32v2-lib\libcompiler-rt.a(muldf3.o)
                              cpu\AC521x\tools\main.or32.o (__muldf3)
C:\JL\pi32\pi32v2-lib\libcompiler-rt.a(mulsf3.o)
                              cpu\AC521x\tools\main.or32.o (__mulsf3)
C:\JL\pi32\pi32v2-lib\libcompiler-rt.a(truncdfsf2.o)
                              cpu\AC521x\tools\main.or32.o (__truncdfsf2)
C:\JL\pi32\pi32v2-lib\libcompiler-rt.a(udivdi3.o)
                              cpu\AC521x\tools\main.or32.o (__udivdi3)
C:\JL\pi32\pi32v2-lib\libcompiler-rt.a(udivmoddi4.o)
                              C:\JL\pi32\pi32v2-lib\libcompiler-rt.a(udivdi3.o) (__udivmoddi4)
C:\JL\pi32\pi32v2-lib\libcompiler-rt.a(umoddi3.o)
                              cpu\AC521x\tools\main.or32.o (__umoddi3)

Allocating common symbols
Common symbol       size              file

g_awb_height        0x0               isp_awb_alg.o (symbol from plugin)
isp0_ae_stat_bufs_copy
                    0x0               isp_ae.o (symbol from plugin)
dot_ary_connect     0x0               ui_paint.o (symbol from plugin)
g_awb_reg_prev_gain
                    0x0               isp_awb_alg.o (symbol from plugin)
g_awb_reg_gain      0x0               isp_awb_alg.o (symbol from plugin)
g_isp1_context      0x0               isp_pipeline.o (symbol from plugin)
g_awb_win_w         0x0               isp_awb_alg.o (symbol from plugin)
g_awb_win_h         0x0               isp_awb_alg.o (symbol from plugin)
g_awb_cur_gain      0x0               isp_awb_alg.o (symbol from plugin)
fd_msg              0x0               ff_api.o (symbol from plugin)
g_still_image_flag  0x0               video_main.o (symbol from plugin)
pslv_str_desc       0x0               core_descriptor.o (symbol from plugin)
uxTimerTaskStack    0x0               main.o (symbol from plugin)
timetick            0x0               timer.o (symbol from plugin)
now_fb              0x0               obj/Release/app/car_camera/app_database.o (symbol from plugin)
uvc_global_l        0x0               usb_video.o (symbol from plugin)
sys_handler         0x0               obj/Release/app/car_camera/video_system.o (symbol from plugin)
at_hdl              0x0               obj/Release/app/car_camera/auto_test.o (symbol from plugin)
g_awb_width         0x0               isp_awb_alg.o (symbol from plugin)
isp0_awb_stat_bufs  0x0               isp_awb.o (symbol from plugin)
port_wakeup_work    0x0               port_waked_up.o (symbol from plugin)
g_isp0_context      0x0               isp_pipeline.o (symbol from plugin)
g_awb_subwin_height
                    0x0               isp_awb_alg.o (symbol from plugin)
g_awb_params        0x0               isp_awb_alg.o (symbol from plugin)
sys_cur_mod         0x0               obj/Release/app/car_camera/ui/style_JL02/ui_action_rec.o (symbol from plugin)
platform_api        0x0               ui_core.o (symbol from plugin)
g_awb_reg_prev_prev_gain
                    0x0               isp_awb_alg.o (symbol from plugin)
g_awb_auto_gain     0x0               isp_awb_alg.o (symbol from plugin)
total_file          0x0               ff_api.o (symbol from plugin)
xQueueRegistry      0x0               queue.o (symbol from plugin)
g_awb_subwin_width  0x0               isp_awb_alg.o (symbol from plugin)
g_awb_win_pixels    0x0               isp_awb_alg.o (symbol from plugin)
isp0_awb_stat_bufs_copy
                    0x0               isp_awb.o (symbol from plugin)
video_rec_osd_buf   0x0               obj/Release/app/car_camera/video_rec.o (symbol from plugin)
if_in_rec           0x0               obj/Release/app/car_camera/ui/style_JL02/ui_action_rec.o (symbol from plugin)
g_video_status      0x0               video_main.o (symbol from plugin)
dot_ary             0x0               ui_paint.o (symbol from plugin)
vframe_buf_addr     0x0               avi_pkg.o (symbol from plugin)
g_stream_buf        0x0               parse_ufw.o (symbol from plugin)
dec_handler         0x0               obj/Release/app/car_camera/video_dec.o (symbol from plugin)
isp0_ae_stat_bufs   0x0               isp_ae.o (symbol from plugin)
awb_stat_data       0x0               isp_awb.o (symbol from plugin)
brush_hdl           0x0               ui_core.o (symbol from plugin)
device_sd1          0x0               sdmmc_init.o (symbol from plugin)
elm_event_handler_begin
                    0x0               ui_core.o (symbol from plugin)
dvp_port            0x0               face_detect.o (symbol from plugin)
_cdc_line_coding    0x0               usb_host_cdc.o (symbol from plugin)
g_awb_data_gain     0x0               isp_awb_alg.o (symbol from plugin)
vframe_nums         0x0               avi_pkg.o (symbol from plugin)
vframe_len_addr     0x0               avi_pkg.o (symbol from plugin)
rec_handler         0x0               obj/Release/app/car_camera/video_rec.o (symbol from plugin)
usb_phy1            0x0               usb_hal.o (symbol from plugin)
host_user_ops       0x0               usb_core.o (symbol from plugin)
vframe_entry_addr   0x0               avi_pkg.o (symbol from plugin)
fp                  0x0               lane_detect_v2_lane.o (symbol from plugin)
elm_event_handler_end
                    0x0               ui_core.o (symbol from plugin)

Discarded input sections

 .text          0x00000000        0x0 obj/Release/app/car_camera/app_database.o (symbol from plugin)
 .text          0x00000000        0x0 obj/Release/app/car_camera/app_main.o (symbol from plugin)
 .text          0x00000000        0x0 obj/Release/app/car_camera/auto_test.o (symbol from plugin)
 .text          0x00000000        0x0 obj/Release/app/car_camera/backlight.o (symbol from plugin)
 .text          0x00000000        0x0 obj/Release/app/car_camera/device_mount.o (symbol from plugin)
 .text          0x00000000        0x0 obj/Release/app/car_camera/face_detect_app.o (symbol from plugin)
 .text          0x00000000        0x0 obj/Release/app/car_camera/face_icon.o (symbol from plugin)
 .text          0x00000000        0x0 obj/Release/app/car_camera/gsensor/da380.o (symbol from plugin)
 .text          0x00000000        0x0 obj/Release/app/car_camera/gsensor/gma301.o (symbol from plugin)
 .text          0x00000000        0x0 obj/Release/app/car_camera/gsensor/gSensor_manage.o (symbol from plugin)
 .text          0x00000000        0x0 obj/Release/app/car_camera/gsensor/msa300.o (symbol from plugin)
 .text          0x00000000        0x0 obj/Release/app/car_camera/gsensor/stk8312.o (symbol from plugin)
 .text          0x00000000        0x0 obj/Release/app/car_camera/key_voice.o (symbol from plugin)
 .text          0x00000000        0x0 obj/Release/app/car_camera/parking_detect.o (symbol from plugin)
 .text          0x00000000        0x0 obj/Release/app/car_camera/play_usb_mic.o (symbol from plugin)
 .text          0x00000000        0x0 obj/Release/app/car_camera/play_usb_speaker.o (symbol from plugin)
 .text          0x00000000        0x0 obj/Release/app/car_camera/ui/style_JL02/ui_action_dec.o (symbol from plugin)
 .text          0x00000000        0x0 obj/Release/app/car_camera/ui/style_JL02/ui_action_main.o (symbol from plugin)
 .text          0x00000000        0x0 obj/Release/app/car_camera/ui/style_JL02/ui_action_photo.o (symbol from plugin)
 .text          0x00000000        0x0 obj/Release/app/car_camera/ui/style_JL02/ui_action_rec.o (symbol from plugin)
 .text          0x00000000        0x0 obj/Release/app/car_camera/ui/style_JL02/ui_action_sys.o (symbol from plugin)
 .text          0x00000000        0x0 obj/Release/app/car_camera/ui/style_JL02/ui_action_usb.o (symbol from plugin)
 .text          0x00000000        0x0 obj/Release/app/car_camera/ui/ui_action_animation.o (symbol from plugin)
 .text          0x00000000        0x0 obj/Release/app/car_camera/upgrade.o (symbol from plugin)
 .text          0x00000000        0x0 obj/Release/app/car_camera/usb_app.o (symbol from plugin)
 .text          0x00000000        0x0 obj/Release/app/car_camera/usb_app_cfg.o (symbol from plugin)
 .text          0x00000000        0x0 obj/Release/app/car_camera/usb_host_user.o (symbol from plugin)
 .text          0x00000000        0x0 obj/Release/app/car_camera/user_isp_cfg.o (symbol from plugin)
 .text          0x00000000        0x0 obj/Release/app/car_camera/user_scr_cfg.o (symbol from plugin)
 .text          0x00000000        0x0 obj/Release/app/car_camera/user_scr_tool.o (symbol from plugin)
 .text          0x00000000        0x0 obj/Release/app/car_camera/uvc_h264_stream.o (symbol from plugin)
 .text          0x00000000        0x0 obj/Release/app/car_camera/version.o (symbol from plugin)
 .text          0x00000000        0x0 obj/Release/app/car_camera/video_dec.o (symbol from plugin)
 .text          0x00000000        0x0 obj/Release/app/car_camera/video_dec_cfg.o (symbol from plugin)
 .text          0x00000000        0x0 obj/Release/app/car_camera/video_photo.o (symbol from plugin)
 .text          0x00000000        0x0 obj/Release/app/car_camera/video_photo_cfg.o (symbol from plugin)
 .text          0x00000000        0x0 obj/Release/app/car_camera/video_rec.o (symbol from plugin)
 .text          0x00000000        0x0 obj/Release/app/car_camera/video_rec_cfg.o (symbol from plugin)
 .text          0x00000000        0x0 obj/Release/app/car_camera/video_system.o (symbol from plugin)
 .text          0x00000000        0x0 obj/Release/app/car_camera/video_system_cfg.o (symbol from plugin)
 .text          0x00000000        0x0 obj/Release/app/debug.o (symbol from plugin)
 .text          0x00000000        0x0 obj/Release/app/flash_write_protect.o (symbol from plugin)
 .text          0x00000000        0x0 obj/Release/app/fontinit.o (symbol from plugin)
 .text          0x00000000        0x0 obj/Release/app/fs_test.o (symbol from plugin)
 .text          0x00000000        0x0 obj/Release/app/sd_speed_test.o (symbol from plugin)
 .text          0x00000000        0x0 obj/Release/app/uvc_53x_upgrade.o (symbol from plugin)
 .text          0x00000000        0x0 obj/Release/app/version.o (symbol from plugin)
 .text          0x00000000        0x0 obj/Release/camera/av10/av10.o (symbol from plugin)
 .text          0x00000000        0x0 obj/Release/camera/av10/av10_spi.o (symbol from plugin)
 .text          0x00000000        0x0 obj/Release/cpu/AC521x/adc.o (symbol from plugin)
 .text          0x00000000        0x0 obj/Release/cpu/AC521x/adkey.o (symbol from plugin)
 .text          0x00000000        0x0 obj/Release/cpu/AC521x/board/board_5211B_dev_20181116.o (symbol from plugin)
 .text          0x00000000        0x0 obj/Release/cpu/AC521x/debug.o (symbol from plugin)
 .text          0x00000000        0x0 obj/Release/cpu/AC521x/iokey.o (symbol from plugin)
 .text          0x00000000        0x0 obj/Release/cpu/AC521x/ldo.o (symbol from plugin)
 .text          0x00000000        0x0 obj/Release/cpu/AC521x/mipi_lcd_driver/dsi_vdo_2lane_24bit.o (symbol from plugin)
 .text          0x00000000        0x0 obj/Release/cpu/AC521x/power_inf.o (symbol from plugin)
 .text          0x00000000        0x0 obj/Release/cpu/AC521x/setup.o (symbol from plugin)
 .text          0x00000000        0x0 obj/Release/cpu/AC521x/static_memory_alloc.o (symbol from plugin)
 .text          0x00000000        0x0 obj/Release/cpu/AC521x/uart_key.o (symbol from plugin)
 .text          0x00000000        0x0 os_api.o (symbol from plugin)
 .text          0x00000000        0x0 queue.o (symbol from plugin)
 .text          0x00000000        0x0 tasks.o (symbol from plugin)
 .text          0x00000000        0x0 port.o (symbol from plugin)
 .text          0x00000000        0x0 main.o (symbol from plugin)
 .text          0x00000000        0x0 croutine.o (symbol from plugin)
 .text          0x00000000        0x0 list.o (symbol from plugin)
 .text          0x00000000        0x0 module_sd1.o (symbol from plugin)
 .text          0x00000000        0x0 sdmmc_init.o (symbol from plugin)
 .text          0x00000000        0x0 sd_host_args.o (symbol from plugin)
 .text          0x00000000        0x0 sd_host_init.o (symbol from plugin)
 .text          0x00000000        0x0 sd_host_mount.o (symbol from plugin)
 .text          0x00000000        0x0 sd_host_read_end.o (symbol from plugin)
 .text          0x00000000        0x0 sd_host_unmount.o (symbol from plugin)
 .text          0x00000000        0x0 sd_host_write.o (symbol from plugin)
 .text          0x00000000        0x0 sd_host_write_end.o (symbol from plugin)
 .text          0x00000000        0x0 sd_init.o (symbol from plugin)
 .text          0x00000000        0x0 mmc_host_send_rca.o (symbol from plugin)
 .text          0x00000000        0x0 sd_host_all_send_cid.o (symbol from plugin)
 .text          0x00000000        0x0 sd_host_reset.o (symbol from plugin)
 .text          0x00000000        0x0 sd_host_send_csd.o (symbol from plugin)
 .text          0x00000000        0x0 sd_host_send_if_cond.o (symbol from plugin)
 .text          0x00000000        0x0 sd_host_send_rca.o (symbol from plugin)
 .text          0x00000000        0x0 sd_host_stop_trans.o (symbol from plugin)
 .text          0x00000000        0x0 sd_select_card.o (symbol from plugin)
 .text          0x00000000        0x0 sdmmc_det.o (symbol from plugin)
 .text          0x00000000        0x0 sd_chk_ctl.o (symbol from plugin)
 .text          0x00000000        0x0 sd_host_hw.o (symbol from plugin)
 .text          0x00000000        0x0 sd_wait_idle.o (symbol from plugin)
 .text          0x00000000        0x0 sd_host_reg.o (symbol from plugin)
 .text          0x00000000        0x0 sd_send_command.o (symbol from plugin)
 .text          0x00000000        0x0 sd_write_start.o (symbol from plugin)
 .text          0x00000000        0x0 sd_host_status.o (symbol from plugin)
 .text          0x00000000        0x0 mango_dev_sd1.o (symbol from plugin)
 .text          0x00000000        0x0 sdmmc_host_set_bus_width.o (symbol from plugin)
 .text          0x00000000        0x0 sdmmc_host_set_hispeed.o (symbol from plugin)
 .text          0x00000000        0x0 sd_host_identification.o (symbol from plugin)
 .text          0x00000000        0x0 sd_host_read.o (symbol from plugin)
 .text          0x00000000        0x0 sd_host_timeout.o (symbol from plugin)
 .text          0x00000000        0x0 mmc_host_send_op_cond.o (symbol from plugin)
 .text          0x00000000        0x0 mmc_host_set_bus_width.o (symbol from plugin)
 .text          0x00000000        0x0 mmc_host_set_hispeed.o (symbol from plugin)
 .text          0x00000000        0x0 mmc_send_ext_csd.o (symbol from plugin)
 .text          0x00000000        0x0 sd_host_sd_status.o (symbol from plugin)
 .text          0x00000000        0x0 sd_host_send_op_cond.o (symbol from plugin)
 .text          0x00000000        0x0 sd_host_set_bus_width.o (symbol from plugin)
 .text          0x00000000        0x0 sd_host_set_hispeed.o (symbol from plugin)
 .text          0x00000000        0x0 sd_host_switch_func.o (symbol from plugin)
 .text          0x00000000        0x0 sd_send_scr.o (symbol from plugin)
 .text          0x00000000        0x0 sd_read_start.o (symbol from plugin)
 .text          0x00000000        0x0 sd_host_app_cmd.o (symbol from plugin)
 .text          0x00000000        0x0 ASCII_lib.o (symbol from plugin)
 .text          0x00000000        0x0 resfile.o (symbol from plugin)
 .text          0x00000000        0x0 quicklz.o (symbol from plugin)
 .text          0x00000000        0x0 usb_hal.o (symbol from plugin)
 .text          0x00000000        0x0 usb_dev.o (symbol from plugin)
 .text          0x00000000        0x0 uvc_dev.o (symbol from plugin)
 .text          0x00000000        0x0 usb_ep_init.o (symbol from plugin)
 .text          0x00000000        0x0 usb_setup.o (symbol from plugin)
 .text          0x00000000        0x0 usb_slave_main.o (symbol from plugin)
 .text          0x00000000        0x0 hid_descriptor.o (symbol from plugin)
 .text          0x00000000        0x0 hid_main.o (symbol from plugin)
 .text          0x00000000        0x0 msd_main.o (symbol from plugin)
 .text          0x00000000        0x0 uvc_setup.o (symbol from plugin)
 .text          0x00000000        0x0 video_descriptor.o (symbol from plugin)
 .text          0x00000000        0x0 video_main.o (symbol from plugin)
 .text          0x00000000        0x0 audio_main.o (symbol from plugin)
 .text          0x00000000        0x0 audio_descriptor.o (symbol from plugin)
 .text          0x00000000        0x0 cdc_main.o (symbol from plugin)
 .text          0x00000000        0x0 usb_hub.o (symbol from plugin)
 .text          0x00000000        0x0 usb_core.o (symbol from plugin)
 .text          0x00000000        0x0 usb_ctrl_transfer.o (symbol from plugin)
 .text          0x00000000        0x0 usb_descriptor_parser.o (symbol from plugin)
 .text          0x00000000        0x0 usb_bulk_transfer.o (symbol from plugin)
 .text          0x00000000        0x0 usb_storage.o (symbol from plugin)
 .text          0x00000000        0x0 usb_video.o (symbol from plugin)
 .text          0x00000000        0x0 usb_wifi.o (symbol from plugin)
 .text          0x00000000        0x0 usb_host_cdc.o (symbol from plugin)
 .text          0x00000000        0x0 usb_scsi_upgrade.o (symbol from plugin)
 .text          0x00000000        0x0 parse_ufw.o (symbol from plugin)
 .text          0x00000000        0x0 parse_bfu.o (symbol from plugin)
 .text          0x00000000        0x0 core_descriptor.o (symbol from plugin)
 .text          0x00000000        0x0 msd_descriptor.o (symbol from plugin)
 .text          0x00000000        0x0 cdc_descriptor.o (symbol from plugin)
 .text          0x00000000        0x0 encrypt_api.o (symbol from plugin)
 .text          0x00000000        0x0 spec_uart.o (symbol from plugin)
 .text          0x00000000        0x0 usb_cam_dev.o (symbol from plugin)
 .text          0x00000000        0x0 vfs.o (symbol from plugin)
 .text          0x00000000        0x0 ff_api.o (symbol from plugin)
 .text          0x00000000        0x0 ff.o (symbol from plugin)
 .text          0x00000000        0x0 ccsbcs.o (symbol from plugin)
 .text          0x00000000        0x0 diskio.o (symbol from plugin)
 .text          0x00000000        0x0 upgrade_server.o (symbol from plugin)
 .text          0x00000000        0x0 server_core.o (symbol from plugin)
 .text          0x00000000        0x0 ui_server.o (symbol from plugin)
 .text          0x00000000        0x0 video_engine_server.o (symbol from plugin)
 .text          0x00000000        0x0 motion_detect.o (symbol from plugin)
 .text          0x00000000        0x0 custom_module_wrap.o (symbol from plugin)
 .text          0x00000000        0x0 custom_module.o (symbol from plugin)
 .text          0x00000000        0x0 lane_detect_v2_wrap.o (symbol from plugin)
 .text          0x00000000        0x0 lane_detect_v2_lane.o (symbol from plugin)
 .text          0x00000000        0x0 lane_detect_v2_lsd.o (symbol from plugin)
 .text          0x00000000        0x0 lane_detect_v2_sobel.o (symbol from plugin)
 .text          0x00000000        0x0 lane_detect_v2_utils.o (symbol from plugin)
 .text          0x00000000        0x0 lane_detect_v2_canny.o (symbol from plugin)
 .text          0x00000000        0x0 lane_detect_v2_get_theta.o (symbol from plugin)
 .text          0x00000000        0x0 video_decode_server.o (symbol from plugin)
 .text          0x00000000        0x0 video_unpkg_server.o (symbol from plugin)
 .text          0x00000000        0x0 avi_unpkg_if.o (symbol from plugin)
 .text          0x00000000        0x0 avi_unpkg.o (symbol from plugin)
 .text          0x00000000        0x0 avi_unpkg_aud.o (symbol from plugin)
 .text          0x00000000        0x0 avi_unpkg_dev.o (symbol from plugin)
 .text          0x00000000        0x0 avi_unpkg_head.o (symbol from plugin)
 .text          0x00000000        0x0 avi_uppkg_vid.o (symbol from plugin)
 .text          0x00000000        0x0 vm_api.o (symbol from plugin)
 .text          0x00000000        0x0 vm.o (symbol from plugin)
 .text          0x00000000        0x0 audio_server.o (symbol from plugin)
 .text          0x00000000        0x0 pcm_decoder.o (symbol from plugin)
 .text          0x00000000        0x0 pcm_encoder.o (symbol from plugin)
 .text          0x00000000        0x0 adpcm_decoder.o (symbol from plugin)
 .text          0x00000000        0x0 spx_package.o (symbol from plugin)
 .text          0x00000000        0x0 amr_package.o (symbol from plugin)
 .text          0x00000000        0x0 opus_package.o (symbol from plugin)
 .text          0x00000000        0x0 usb_server.o (symbol from plugin)
 .text          0x00000000        0x0 mass_storage.o (symbol from plugin)
 .text          0x00000000        0x0 uvc_camera.o (symbol from plugin)
 .text          0x00000000        0x0 uac_mic_gadget.o (symbol from plugin)
 .text          0x00000000        0x0 uac_spk_gadget.o (symbol from plugin)
 .text          0x00000000        0x0 hid_gadget.o (symbol from plugin)
 .text          0x00000000        0x0 cdc_gadget.o (symbol from plugin)
 .text          0x00000000        0x0 isp_tool.o (symbol from plugin)
 .text          0x00000000        0x0 isd_tool.o (symbol from plugin)
 .text          0x00000000        0x0 udef_tool.o (symbol from plugin)
 .text          0x00000000        0x0 screen_tool.o (symbol from plugin)
 .text          0x00000000        0x0 video_server.o (symbol from plugin)
 .text          0x00000000        0x0 video_pkg_server.o (symbol from plugin)
 .text          0x00000000        0x0 avi_pkg_if.o (symbol from plugin)
 .text          0x00000000        0x0 avi_pkg.o (symbol from plugin)
 .text          0x00000000        0x0 avi_pkg_dev.o (symbol from plugin)
 .text          0x00000000        0x0 avi_pkg_head.o (symbol from plugin)
 .text          0x00000000        0x0 avi_pkg_idx.o (symbol from plugin)
 .text          0x00000000        0x0 mov_pkg_if.o (symbol from plugin)
 .text          0x00000000        0x0 mov_pkg_idx.o (symbol from plugin)
 .text          0x00000000        0x0 mov_pkg_dev.o (symbol from plugin)
 .text          0x00000000        0x0 mov_pkg.o (symbol from plugin)
 .text          0x00000000        0x0 mp4_pkg_if.o (symbol from plugin)
 .text          0x00000000        0x0 mp4_pkg_box.o (symbol from plugin)
 .text          0x00000000        0x0 mp4_pkg_media.o (symbol from plugin)
 .text          0x00000000        0x0 mp4_pkg_fs.o (symbol from plugin)
 .text          0x00000000        0x0 mp4_pkg.o (symbol from plugin)
 .text          0x00000000        0x0 device_api.o (symbol from plugin)
 .text          0x00000000        0x0 iic.o (symbol from plugin)
 .text          0x00000000        0x0 software_iic.o (symbol from plugin)
 .text          0x00000000        0x0 spiflash.o (symbol from plugin)
 .text          0x00000000        0x0 videobuf.o (symbol from plugin)
 .text          0x00000000        0x0 psram.o (symbol from plugin)
 .text          0x00000000        0x0 version.o (symbol from plugin)
 .text          0x00000000        0x0 audio_dev.o (symbol from plugin)
 .text          0x00000000        0x0 fbmem.o (symbol from plugin)
 .text          0x00000000        0x0 version.o (symbol from plugin)
 .text          0x00000000        0x0 video_device.o (symbol from plugin)
 .text          0x00000000        0x0 camera_driver.o (symbol from plugin)
 .text          0x00000000        0x0 window.o (symbol from plugin)
 .text          0x00000000        0x0 layer.o (symbol from plugin)
 .text          0x00000000        0x0 layout.o (symbol from plugin)
 .text          0x00000000        0x0 ui_api.o (symbol from plugin)
 .text          0x00000000        0x0 ui_battery.o (symbol from plugin)
 .text          0x00000000        0x0 ui_button.o (symbol from plugin)
 .text          0x00000000        0x0 ui_camera.o (symbol from plugin)
 .text          0x00000000        0x0 ui_core.o (symbol from plugin)
 .text          0x00000000        0x0 ui_grid.o (symbol from plugin)
 .text          0x00000000        0x0 ui_p.o (symbol from plugin)
 .text          0x00000000        0x0 ui_pic.o (symbol from plugin)
 .text          0x00000000        0x0 ui_text.o (symbol from plugin)
 .text          0x00000000        0x0 ui_time.o (symbol from plugin)
 .text          0x00000000        0x0 ui_animation.o (symbol from plugin)
 .text          0x00000000        0x0 ui_player.o (symbol from plugin)
 .text          0x00000000        0x0 ui_watch.o (symbol from plugin)
 .text          0x00000000        0x0 ui_slider.o (symbol from plugin)
 .text          0x00000000        0x0 ui_file_browser.o (symbol from plugin)
 .text          0x00000000        0x0 ui_file_attrs.o (symbol from plugin)
 .text          0x00000000        0x0 ui_paint.o (symbol from plugin)
 .text          0x00000000        0x0 ui_operate.o (symbol from plugin)
 .text          0x00000000        0x0 index.o (symbol from plugin)
 .text          0x00000000        0x0 version.o (symbol from plugin)
 .text          0x00000000        0x0 app_core.o (symbol from plugin)
 .text          0x00000000        0x0 event.o (symbol from plugin)
 .text          0x00000000        0x0 init.o (symbol from plugin)
 .text          0x00000000        0x0 task.o (symbol from plugin)
 .text          0x00000000        0x0 timer.o (symbol from plugin)
 .text          0x00000000        0x0 key_driver.o (symbol from plugin)
 .text          0x00000000        0x0 wait_completion.o (symbol from plugin)
 .text          0x00000000        0x0 database.o (symbol from plugin)
 .text          0x00000000        0x0 system_check.o (symbol from plugin)
 .text          0x00000000        0x0 power_manage.o (symbol from plugin)
 .text          0x00000000        0x0 version.o (symbol from plugin)
 .text          0x00000000        0x0 iis.o (symbol from plugin)
 .text          0x00000000        0x0 adc.o (symbol from plugin)
 .text          0x00000000        0x0 dac.o (symbol from plugin)
 .text          0x00000000        0x0 subdevice_dac.o (symbol from plugin)
 .text          0x00000000        0x0 clock.o (symbol from plugin)
 .text          0x00000000        0x0 crc16.o (symbol from plugin)
 .text          0x00000000        0x0 dma.o (symbol from plugin)
 .text          0x00000000        0x0 uart.o (symbol from plugin)
 .text          0x00000000        0x0 hwi.o (symbol from plugin)
 .text          0x00000000        0x0 gpio.o (symbol from plugin)
 .text          0x00000000        0x0 port_waked_up.o (symbol from plugin)
 .text          0x00000000        0x0 delay.o (symbol from plugin)
 .text          0x00000000        0x0 rtc.o (symbol from plugin)
 .text          0x00000000        0x0 timer.o (symbol from plugin)
 .text          0x00000000        0x0 iic.o (symbol from plugin)
 .text          0x00000000        0x0 sd.o (symbol from plugin)
 .text          0x00000000        0x0 cache.o (symbol from plugin)
 .text          0x00000000        0x0 spi0.o (symbol from plugin)
 .text          0x00000000        0x0 pwm.o (symbol from plugin)
 .text          0x00000000        0x0 pap.o (symbol from plugin)
 .text          0x00000000        0x0 ui_platform.o (symbol from plugin)
 .text          0x00000000        0x0 imr.o (symbol from plugin)
 .text          0x00000000        0x0 imd.o (symbol from plugin)
 .text          0x00000000        0x0 fbvirtual.o (symbol from plugin)
 .text          0x00000000        0x0 lcd_driver.o (symbol from plugin)
 .text          0x00000000        0x0 imb.o (symbol from plugin)
 .text          0x00000000        0x0 dsi.o (symbol from plugin)
 .text          0x00000000        0x0 dsi_packet.o (symbol from plugin)
 .text          0x00000000        0x0 subdevice_uvc.o (symbol from plugin)
 .text          0x00000000        0x0 imc.o (symbol from plugin)
 .text          0x00000000        0x0 video_ram.o (symbol from plugin)
 .text          0x00000000        0x0 jpeg_codec.o (symbol from plugin)
 .text          0x00000000        0x0 jpeg_encoder.o (symbol from plugin)
 .text          0x00000000        0x0 jpeg_decoder.o (symbol from plugin)
 .text          0x00000000        0x0 jpeg_dynamic_huffman.o (symbol from plugin)
 .text          0x00000000        0x0 jpeg_abr.o (symbol from plugin)
 .text          0x00000000        0x0 subdevice_djpeg.o (symbol from plugin)
 .text          0x00000000        0x0 image_encode.o (symbol from plugin)
 .text          0x00000000        0x0 camera_effect.o (symbol from plugin)
 .text          0x00000000        0x0 video_fb.o (symbol from plugin)
 .text          0x00000000        0x0 osd_time.o (symbol from plugin)
 .text          0x00000000        0x0 video.o (symbol from plugin)
 .text          0x00000000        0x0 version.o (symbol from plugin)
 .text          0x00000000        0x0 subdevice_isp.o (symbol from plugin)
 .text          0x00000000        0x0 fix16.o (symbol from plugin)
 .text          0x00000000        0x0 fix16_exp.o (symbol from plugin)
 .text          0x00000000        0x0 fix16_sqrt.o (symbol from plugin)
 .text          0x00000000        0x0 fix16_str.o (symbol from plugin)
 .text          0x00000000        0x0 fix16_trig.o (symbol from plugin)
 .text          0x00000000        0x0 adjustment.o (symbol from plugin)
 .text          0x00000000        0x0 blc.o (symbol from plugin)
 .text          0x00000000        0x0 ccm.o (symbol from plugin)
 .text          0x00000000        0x0 chroma.o (symbol from plugin)
 .text          0x00000000        0x0 debugutils.o (symbol from plugin)
 .text          0x00000000        0x0 dpc.o (symbol from plugin)
 .text          0x00000000        0x0 drc.o (symbol from plugin)
 .text          0x00000000        0x0 gamma.o (symbol from plugin)
 .text          0x00000000        0x0 isc.o (symbol from plugin)
 .text          0x00000000        0x0 lsc.o (symbol from plugin)
 .text          0x00000000        0x0 misc.o (symbol from plugin)
 .text          0x00000000        0x0 nr.o (symbol from plugin)
 .text          0x00000000        0x0 nr3d.o (symbol from plugin)
 .text          0x00000000        0x0 sharpen.o (symbol from plugin)
 .text          0x00000000        0x0 statistic.o (symbol from plugin)
 .text          0x00000000        0x0 wb.o (symbol from plugin)
 .text          0x00000000        0x0 isp_ae.o (symbol from plugin)
 .text          0x00000000        0x0 isp_awb.o (symbol from plugin)
 .text          0x00000000        0x0 isp_customize.o (symbol from plugin)
 .text          0x00000000        0x0 isp_dev0.o (symbol from plugin)
 .text          0x00000000        0x0 isp_dev1.o (symbol from plugin)
 .text          0x00000000        0x0 isp_if.o (symbol from plugin)
 .text          0x00000000        0x0 isp_io.o (symbol from plugin)
 .text          0x00000000        0x0 isp_isr.o (symbol from plugin)
 .text          0x00000000        0x0 isp_pipeline.o (symbol from plugin)
 .text          0x00000000        0x0 isp_sen_param.o (symbol from plugin)
 .text          0x00000000        0x0 isp_tables.o (symbol from plugin)
 .text          0x00000000        0x0 isp_task.o (symbol from plugin)
 .text          0x00000000        0x0 isp_tuning.o (symbol from plugin)
 .text          0x00000000        0x0 isp_utils.o (symbol from plugin)
 .text          0x00000000        0x0 sensor_dev.o (symbol from plugin)
 .text          0x00000000        0x0 isp_motion_detect.o (symbol from plugin)
 .text          0x00000000        0x0 isp_ae_alg.o (symbol from plugin)
 .text          0x00000000        0x0 isp_awb_alg.o (symbol from plugin)
 .text          0x00000000        0x0 isp_awb_alg_gw1.o (symbol from plugin)
 .text          0x00000000        0x0 isp_awb_alg_ct2.o (symbol from plugin)
 .text          0x00000000        0x0 isp_drc.o (symbol from plugin)
 .text          0x00000000        0x0 median_filter.o (symbol from plugin)
 .text          0x00000000        0x0 average_filter.o (symbol from plugin)
 .text          0x00000000        0x0 isp_contrast.o (symbol from plugin)
 .text          0x00000000        0x0 isp_params_smooth.o (symbol from plugin)
 .text          0x00000000        0x0 version.o (symbol from plugin)
 .text          0x00000000        0x0 mem_heap.o (symbol from plugin)
 .text          0x00000000        0x0 mem_leak_test.o (symbol from plugin)
 .text          0x00000000        0x0 face_detect.o (symbol from plugin)
 .text          0x00000000        0x0 usb_syn.o (symbol from plugin)
 .text          0x00000000        0x0 printf-stdarg.o (symbol from plugin)
 .text          0x00000000        0x0 puthex.o (symbol from plugin)
 .text          0x00000000        0x0 log.o (symbol from plugin)
 .text          0x00000000        0x0 fcvt.o (symbol from plugin)
 .text          0x00000000        0x0 lbuf.o (symbol from plugin)
 .text          0x00000000        0x0 dev_lbuf.o (symbol from plugin)
 .text          0x00000000        0x0 circular_buf.o (symbol from plugin)
 .text          0x00000000        0x0 mauart.o (symbol from plugin)
 .text          0x00000000        0x0 touch_panel_manager.o (symbol from plugin)
 .text          0x00000000        0x0 ascii.o (symbol from plugin)
 .text          0x00000000        0x0 sdfile.o (symbol from plugin)
 .text          0x00000000        0x0 devfs.o (symbol from plugin)
 .text          0x00000000        0x0 fat_compact.o (symbol from plugin)
 .text          0x00000000        0x0 dev_Cache.o (symbol from plugin)
 .text          0x00000000        0x0 fat_Dir.o (symbol from plugin)
 .text          0x00000000        0x0 fat_Table.o (symbol from plugin)
 .text          0x00000000        0x0 ff_api.o (symbol from plugin)
 .text          0x00000000        0x0 fs_api.o (symbol from plugin)
 .text          0x00000000        0x0 fat_Mount.o (symbol from plugin)
 .text          0x00000000        0x0 tff.o (symbol from plugin)
 .text          0x00000000        0x0 ramfs.o (symbol from plugin)
 .text          0x00000000        0x0 font_textout.o (symbol from plugin)
 .text          0x00000000        0x0 font_big5.o (symbol from plugin)
 .text          0x00000000        0x0 font_gbk.o (symbol from plugin)
 .text          0x00000000        0x0 font_ksc.o (symbol from plugin)
 .text          0x00000000        0x0 font_other_language.o (symbol from plugin)
 .text          0x00000000        0x0 font_sdfs.o (symbol from plugin)
 .text          0x00000000        0x0 font_sjis.o (symbol from plugin)
 .text          0x00000000        0x0 font_ascii.o (symbol from plugin)

Memory Configuration

Name             Origin             Length             Attributes
rom              0x00000000         0x00200000         xr
sdram            0x01000000         0x00800000         xrw
ram0             0x00f00000         0x00010000         xrw
*default*        0x00000000         0xffffffff

Linker script and memory map

LOAD obj/Release/app/car_camera/app_database.o
LOAD cpu\AC521x\tools\main.or32.o
LOAD obj/Release/app/car_camera/app_main.o
LOAD obj/Release/app/car_camera/auto_test.o
LOAD obj/Release/app/car_camera/backlight.o
LOAD obj/Release/app/car_camera/device_mount.o
LOAD obj/Release/app/car_camera/face_detect_app.o
LOAD obj/Release/app/car_camera/face_icon.o
LOAD obj/Release/app/car_camera/gsensor/da380.o
LOAD obj/Release/app/car_camera/gsensor/gma301.o
LOAD obj/Release/app/car_camera/gsensor/gSensor_manage.o
LOAD obj/Release/app/car_camera/gsensor/msa300.o
LOAD obj/Release/app/car_camera/gsensor/stk8312.o
LOAD obj/Release/app/car_camera/key_voice.o
LOAD obj/Release/app/car_camera/parking_detect.o
LOAD obj/Release/app/car_camera/play_usb_mic.o
LOAD obj/Release/app/car_camera/play_usb_speaker.o
LOAD obj/Release/app/car_camera/ui/style_JL02/ui_action_dec.o
LOAD obj/Release/app/car_camera/ui/style_JL02/ui_action_main.o
LOAD obj/Release/app/car_camera/ui/style_JL02/ui_action_photo.o
LOAD obj/Release/app/car_camera/ui/style_JL02/ui_action_rec.o
LOAD obj/Release/app/car_camera/ui/style_JL02/ui_action_sys.o
LOAD obj/Release/app/car_camera/ui/style_JL02/ui_action_usb.o
LOAD obj/Release/app/car_camera/ui/ui_action_animation.o
LOAD obj/Release/app/car_camera/upgrade.o
LOAD obj/Release/app/car_camera/usb_app.o
LOAD obj/Release/app/car_camera/usb_app_cfg.o
LOAD obj/Release/app/car_camera/usb_host_user.o
LOAD obj/Release/app/car_camera/user_isp_cfg.o
LOAD obj/Release/app/car_camera/user_scr_cfg.o
LOAD obj/Release/app/car_camera/user_scr_tool.o
LOAD obj/Release/app/car_camera/uvc_h264_stream.o
LOAD obj/Release/app/car_camera/version.o
LOAD obj/Release/app/car_camera/video_dec.o
LOAD obj/Release/app/car_camera/video_dec_cfg.o
LOAD obj/Release/app/car_camera/video_photo.o
LOAD obj/Release/app/car_camera/video_photo_cfg.o
LOAD obj/Release/app/car_camera/video_rec.o
LOAD obj/Release/app/car_camera/video_rec_cfg.o
LOAD obj/Release/app/car_camera/video_system.o
LOAD obj/Release/app/car_camera/video_system_cfg.o
LOAD obj/Release/app/debug.o
LOAD obj/Release/app/flash_write_protect.o
LOAD obj/Release/app/fontinit.o
LOAD obj/Release/app/fs_test.o
LOAD obj/Release/app/sd_speed_test.o
LOAD obj/Release/app/uvc_53x_upgrade.o
LOAD obj/Release/app/version.o
LOAD obj/Release/camera/av10/av10.o
LOAD obj/Release/camera/av10/av10_spi.o
LOAD obj/Release/cpu/AC521x/adc.o
LOAD obj/Release/cpu/AC521x/adkey.o
LOAD obj/Release/cpu/AC521x/board/board_5211B_dev_20181116.o
LOAD obj/Release/cpu/AC521x/debug.o
LOAD obj/Release/cpu/AC521x/iokey.o
LOAD obj/Release/cpu/AC521x/ldo.o
LOAD obj/Release/cpu/AC521x/mipi_lcd_driver/dsi_vdo_2lane_24bit.o
LOAD obj/Release/cpu/AC521x/power_inf.o
LOAD obj/Release/cpu/AC521x/setup.o
LOAD obj/Release/cpu/AC521x/static_memory_alloc.o
LOAD obj/Release/cpu/AC521x/uart_key.o
                0x00800000                SDRAM_SIZE = 0x800000
                0x00200000                FLASH_SIZE = 0x200000
                0x00000034                __cpu_id__ = 0x34
                0x01000000                . = ORIGIN (sdram)

.rom_code       0x01000000    0xac96c
                0x01000000                _text_rodata_begin = .
                [!provide]                PROVIDE (text_rodata_begin, .)
 *startup.o(.text)
 .text          0x01000000       0xa8 include_lib/liba/AC521x/cpu.a(startup.o)
                0x01000000                _start
                0x01000094                cpu1_start
 *sfc_boot.o(.text*)
 *sfc_boot.o(.rodata*)
 *boot_main.o(.text*)
 *boot_main.o(.rodata*)
                0x010000a8                . = ALIGN (0x4)
                0x010000a8                __VERSION_BEGIN = .
 *(.sys.version)
 .sys.version   0x010000a8       0x25 include_lib/liba/AC521x/rtos.a(version.z.o)
                0x010000a8                lib_rtos_version
 .sys.version   0x010000cd       0x24 include_lib/liba/AC521x/sd1.a(version.z.o)
                0x010000cd                lib_sd1_version
 .sys.version   0x010000f1       0x23 include_lib/liba/AC521x/fs.a(version.z.o)
                0x010000f1                lib_fs_version
 .sys.version   0x01000114       0x31 include_lib/liba/AC521x/video_dec_server.a(version.z.o)
                0x01000114                lib_video_dec_server_version
 .sys.version   0x01000145       0x23 include_lib/liba/AC521x/vm.a(version.z.o)
                0x01000145                lib_vm_version
 .sys.version   0x01000168       0x2d include_lib/liba/AC521x/audio_server.a(version.z.o)
                0x01000168                lib_audio_server_version
 .sys.version   0x01000195       0x39 include_lib/liba/AC521x/usb_server.a(version.z.o)
                0x01000195                lib_usb_server_version
 .sys.version   0x010001ce       0x31 include_lib/liba/AC521x/video_rec_server.a(version.z.o)
                0x010001ce                lib_video_rec_server_version
 .sys.version   0x010001ff       0x2a include_lib/liba/AC521x/audio_dev.a(version.z.o)
                0x010001ff                lib_audio_dev_version
 .sys.version   0x01000229       0x32 include_lib/liba/AC521x/video_dev.a(version.z.o)
                0x01000229                lib_video_dev_version
 .sys.version   0x0100025b       0x23 include_lib/liba/AC521x/ui.a(version.z.o)
                0x0100025b                lib_ui_version
 .sys.version   0x0100027e       0x24 include_lib/liba/AC521x/cpu.a(version.z.o)
                0x0100027e                lib_cpu_version
 .sys.version   0x010002a2       0x29 include_lib/liba/AC521x/cpu_disp.a(version.z.o)
                0x010002a2                lib_cpu_disp_version
 .sys.version   0x010002cb       0x38 include_lib/liba/AC521x/cpu_video.a(version.z.o)
                0x010002cb                lib_cpu_video_version
 .sys.version   0x01000303       0x23 include_lib/liba/AC521x/mm.a(version.z.o)
                0x01000303                lib_mm_version
 .sys.version   0x01000326       0x29 include_lib/liba/AC521x/lib_usb_syn.a(version.z.o)
                0x01000326                lib_usb_sync_version
 .sys.version   0x0100034f       0x25 include_lib/liba/AC521x/cbuf.a(version.z.o)
                0x0100034f                lib_cbuf_version
                0x01000374                __VERSION_END = .
 *(.text*)
 .text          0x01000374    0x7aa28 cpu\AC521x\tools\main.or32.o
                0x010019ca                puts
                0x01022ab6                cpu1_main
                0x01022f9c                OS_ClrPending
                0x01059afa                main
 .text          0x0107ad9c        0x0 include_lib/liba/AC521x/rtos.a(version.z.o)
 .text          0x0107ad9c       0x54 include_lib/liba/AC521x/rtos.a(port_asm.o)
                0x0107ad9c                vSoftwareInterruptISR
 .text          0x0107adf0        0x0 include_lib/liba/AC521x/sd1.a(version.z.o)
 .text          0x0107adf0        0x0 include_lib/liba/AC521x/fs.a(version.z.o)
 .text          0x0107adf0        0x0 include_lib/liba/AC521x/video_dec_server.a(version.z.o)
 .text          0x0107adf0        0x0 include_lib/liba/AC521x/vm.a(version.z.o)
 .text          0x0107adf0        0x0 include_lib/liba/AC521x/audio_server.a(version.z.o)
 .text          0x0107adf0        0x0 include_lib/liba/AC521x/usb_server.a(version.z.o)
 .text          0x0107adf0       0xa8 include_lib/liba/AC521x/aac_enc_lib.a(AAC_E_SAMPLES.o)
                0x0107ae90                get_aac_enc_ops
 .text          0x0107ae98        0x0 include_lib/liba/AC521x/aac_enc_lib.a(aac_rom.o)
 .text          0x0107ae98      0x160 include_lib/liba/AC521x/aac_enc_lib.a(aacenc.o)
                0x0107ae98                voAACEncInit
 .text          0x0107aff8      0x1ae include_lib/liba/AC521x/aac_enc_lib.a(aacenc_core.o)
                0x0107aff8                AacEncOpen
                0x0107b0a8                AacEncEncode
 .text          0x0107b1a6     0x14c2 include_lib/liba/AC521x/aac_enc_lib.a(adj_thr.o)
                0x0107b1a6                bits2pe
                0x0107b1b4                AdjThrInit
                0x0107b33a                AdjustThresholds
                0x0107c662                AdjThrUpdate
 .text          0x0107c668      0x1ae include_lib/liba/AC521x/aac_enc_lib.a(band_nrg.o)
                0x0107c668                CalcBandEnergy
                0x0107c6f8                CalcBandEnergyMS
 .text          0x0107c816      0x15c include_lib/liba/AC521x/aac_enc_lib.a(basicop2.o)
                0x0107c816                aace_shl
                0x0107c866                aace_shr
                0x0107c886                aace_L_shl
                0x0107c88e                aace_L_shr
                0x0107c8ac                aace_shr_r
                0x0107c92e                aace_L_shr_r
                0x0107c96c                aace_cls
 .text          0x0107c972      0xcac include_lib/liba/AC521x/aac_enc_lib.a(bit_cnt.o)
                0x0107c972                bitCount
                0x0107c996                codeValues
                0x0107cf0e                bitCountScalefactorDelta
                0x0107cf1a                codeScalefactorDelta
 .text          0x0107d61e       0x76 include_lib/liba/AC521x/aac_enc_lib.a(bitbuffer.o)
                0x0107d61e                CreateBitBuffer
                0x0107d638                GetBitsAvail
                0x0107d63e                WriteBits
 .text          0x0107d694      0x5ca include_lib/liba/AC521x/aac_enc_lib.a(bitenc.o)
                0x0107d8bc                WriteBitstream
 .text          0x0107dc5e      0x348 include_lib/liba/AC521x/aac_enc_lib.a(block_switch.o)
                0x0107dc5e                InitBlockSwitching
                0x0107dcc2                CalcWindowEnergy
                0x0107dd52                BlockSwitching
                0x0107defa                SyncBlockSwitching
 .text          0x0107dfa6       0x92 include_lib/liba/AC521x/aac_enc_lib.a(channel_map.o)
                0x0107dfca                InitElementInfo
                0x0107dfee                InitElementBits
 .text          0x0107e038      0x54e include_lib/liba/AC521x/aac_enc_lib.a(dyn_bits.o)
                0x0107e0d2                dynBitCount
 .text          0x0107e586      0x3ce include_lib/liba/AC521x/aac_enc_lib.a(grp_data.o)
                0x0107e586                groupShortData
 .text          0x0107e954      0x126 include_lib/liba/AC521x/aac_enc_lib.a(interface.o)
                0x0107e954                BuildInterface
 .text          0x0107ea7a      0x202 include_lib/liba/AC521x/aac_enc_lib.a(line_pe.o)
                0x0107ea7a                prepareSfbPe
                0x0107eb02                calcSfbPe
 .text          0x0107ec7c      0x1d4 include_lib/liba/AC521x/aac_enc_lib.a(ms_stereo.o)
                0x0107ec7c                MsStereoProcessing
 .text          0x0107ee50      0x2ec include_lib/liba/AC521x/aac_enc_lib.a(oper_32b.o)
                0x0107ee50                aacem_L_Extract
                0x0107ee9a                aacem_L_Comp
                0x0107eec2                aacem_Mpy_32
                0x0107ef3c                aacem_aacem_Mpy_32_16
                0x0107ef86                aacem_Div_32
                0x0107ef94                aacem_iLog4
                0x0107efdc                aacem_rsqrt
                0x0107f112                aacem_pow2_xy
 .text          0x0107f13c       0xaa include_lib/liba/AC521x/aac_enc_lib.a(pre_echo_control.o)
                0x0107f13c                InitPreEchoControl
                0x0107f152                PreEchoControl
 .text          0x0107f1e6      0x5d6 include_lib/liba/AC521x/aac_enc_lib.a(psy_configuration.o)
                0x0107f1e6                GetSRIndex
                0x0107f5f0                InitPsyConfigurationLong
                0x0107f6dc                InitPsyConfigurationShort
 .text          0x0107f7bc      0x77a include_lib/liba/AC521x/aac_enc_lib.a(psy_main.o)
                0x0107f7bc                psyMainInit
                0x0107f836                psyMain
 .text          0x0107ff36      0x420 include_lib/liba/AC521x/aac_enc_lib.a(qc_main.o)
                0x0107ff36                QCInit
                0x0107ff8e                QCMain
                0x01080212                updateBitres
                0x01080246                FinalizeBitConsumption
                0x0108030e                AdjustBitrate
 .text          0x01080356      0x466 include_lib/liba/AC521x/aac_enc_lib.a(quantize.o)
                0x01080356                pow34
                0x010803d2                QuantizeSpectrum
                0x01080644                calcSfbDist
 .text          0x010807bc      0x4a2 include_lib/liba/AC521x/aac_enc_lib.a(sf_estim.o)
                0x010807bc                formfac_sqrt
                0x010807f4                CalcFormFactor
                0x01080924                EstimateScaleFactors
 .text          0x01080c5e       0x64 include_lib/liba/AC521x/aac_enc_lib.a(spreading.o)
                0x01080c5e                SpreadingMax
 .text          0x01080cc2       0x6c include_lib/liba/AC521x/aac_enc_lib.a(stat_bits.o)
                0x01080cc2                countStaticBitdemand
 .text          0x01080d2e      0x986 include_lib/liba/AC521x/aac_enc_lib.a(transform.o)
                0x01081030                Mdct_Long
                0x0108122a                Mdct_Short
                0x01081340                Transform_Real
 .text          0x010816b4        0x0 include_lib/liba/AC521x/aac_enc_lib.a(version.o)
 .text          0x010816b4        0x0 include_lib/liba/AC521x/video_rec_server.a(version.z.o)
 .text          0x010816b4        0x0 include_lib/liba/AC521x/audio_dev.a(version.z.o)
 .text          0x010816b4        0x0 include_lib/liba/AC521x/video_dev.a(version.z.o)
 .text          0x010816b4        0x0 include_lib/liba/AC521x/ui.a(version.z.o)
 .text          0x010816b4        0x0 include_lib/liba/AC521x/cpu.a(version.z.o)
 .text          0x010816b4        0x0 include_lib/liba/AC521x/cpu_disp.a(version.z.o)
 .text          0x010816b4        0x0 include_lib/liba/AC521x/cpu_video.a(version.z.o)
 .text          0x010816b4        0x0 include_lib/liba/AC521x/mm.a(version.z.o)
 .text          0x010816b4        0x0 include_lib/liba/AC521x/lib_usb_syn.a(version.z.o)
 .text          0x010816b4        0x0 include_lib/liba/AC521x/cbuf.a(version.z.o)
 .text          0x010816b4       0x3c include_lib/liba/AC521x/libc.a(lib_a-memcmp.o)
                0x010816b4                memcmp
 .text          0x010816f0       0x86 include_lib/liba/AC521x/libc.a(lib_a-memcpy.o)
                0x010816f0                memcpy
 .text          0x01081776       0x28 include_lib/liba/AC521x/libc.a(lib_a-memmem.o)
                0x01081776                memmem
 .text          0x0108179e       0xe2 include_lib/liba/AC521x/libc.a(lib_a-memset.o)
                0x0108179e                memset
 .text          0x01081880       0x1a include_lib/liba/AC521x/libc.a(lib_a-strcat.o)
                0x01081880                strcat
 .text          0x0108189a       0x16 include_lib/liba/AC521x/libc.a(lib_a-strchr.o)
                0x0108189a                strchr
 .text          0x010818b0       0x16 include_lib/liba/AC521x/libc.a(lib_a-strcmp.o)
                0x010818b0                strcmp
 .text          0x010818c6       0x10 include_lib/liba/AC521x/libc.a(lib_a-strcpy.o)
                0x010818c6                strcpy
 .text          0x010818d6        0xe include_lib/liba/AC521x/libc.a(lib_a-strlen.o)
                0x010818d6                strlen
 .text          0x010818e4       0x24 include_lib/liba/AC521x/libc.a(lib_a-strncmp.o)
                0x010818e4                strncmp
 .text          0x01081908       0x2c include_lib/liba/AC521x/libc.a(lib_a-strncpy.o)
                0x01081908                strncpy
 .text          0x01081934       0x2e include_lib/liba/AC521x/libc.a(lib_a-strstr.o)
                0x01081934                strstr
 .text          0x01081962      0x114 include_lib/liba/AC521x/libc.a(lib_a-strtoul.o)
                0x01081962                _strtoul_r
                0x01081a5e                strtoul
 .text          0x01081a76        0x0 include_lib/liba/AC521x/libc.a(lib_a-ctype_.o)
 .text          0x01081a76        0x0 include_lib/liba/AC521x/libc.a(lib_a-impure.o)
 .text          0x01081a76       0x70 include_lib/liba/AC521x/libm.a(lib_a-s_modf.o)
                0x01081a76                modf
 .text          0x01081ae6        0x8 C:\JL\pi32\pi32v2-lib\libcompiler-rt.a(subdf3.o)
                0x01081ae6                __subdf3
 .text          0x01081aee      0x2ba C:\JL\pi32\pi32v2-lib\libcompiler-rt.a(adddf3.o)
                0x01081aee                __adddf3
 .text          0x01081da8       0x2c include_lib/liba/AC521x/libc.a(lib_a-memmove.o)
                0x01081da8                memmove
 .text          0x01081dd4      0x166 C:\JL\pi32\pi32v2-lib\libcompiler-rt.a(addsf3.o)
                0x01081dd4                __addsf3
 .text          0x01081f3a      0x176 C:\JL\pi32\pi32v2-lib\libcompiler-rt.a(comparedf2.o)
                0x01081f3a                __ledf2
                0x01081fd0                __gedf2
                0x01082068                __unorddf2
                0x010820a8                __eqdf2
                0x010820aa                __ltdf2
                0x010820ac                __nedf2
                0x010820ae                __gtdf2
 .text          0x010820b0       0xa4 C:\JL\pi32\pi32v2-lib\libcompiler-rt.a(comparesf2.o)
                0x010820b0                __lesf2
                0x010820f0                __gesf2
                0x01082130                __unordsf2
                0x0108214c                __eqsf2
                0x0108214e                __ltsf2
                0x01082150                __nesf2
                0x01082152                __gtsf2
 .text          0x01082154      0x2c6 C:\JL\pi32\pi32v2-lib\libcompiler-rt.a(divdf3.o)
                0x01082154                __divdf3
 .text          0x0108241a      0x148 C:\JL\pi32\pi32v2-lib\libcompiler-rt.a(divsf3.o)
                0x0108241a                __divsf3
 .text          0x01082562       0x64 C:\JL\pi32\pi32v2-lib\libcompiler-rt.a(extendsfdf2.o)
                0x01082562                __extendsfdf2
 .text          0x010825c6       0x42 C:\JL\pi32\pi32v2-lib\libcompiler-rt.a(fixdfsi.o)
                0x010825c6                __fixdfsi
 .text          0x01082608       0x4a C:\JL\pi32\pi32v2-lib\libcompiler-rt.a(fixsfsi.o)
                0x01082608                __fixsfsi
 .text          0x01082652       0x34 C:\JL\pi32\pi32v2-lib\libcompiler-rt.a(fixunsdfsi.o)
                0x01082652                __fixunsdfsi
 .text          0x01082686       0x36 C:\JL\pi32\pi32v2-lib\libcompiler-rt.a(fixunssfsi.o)
                0x01082686                __fixunssfsi
 .text          0x010826bc       0x3c C:\JL\pi32\pi32v2-lib\libcompiler-rt.a(floatsidf.o)
                0x010826bc                __floatsidf
 .text          0x010826f8       0x50 C:\JL\pi32\pi32v2-lib\libcompiler-rt.a(floatunsisf.o)
                0x010826f8                __floatunsisf
 .text          0x01082748      0x262 C:\JL\pi32\pi32v2-lib\libcompiler-rt.a(muldf3.o)
                0x01082748                __muldf3
 .text          0x010829aa      0x130 C:\JL\pi32\pi32v2-lib\libcompiler-rt.a(mulsf3.o)
                0x010829aa                __mulsf3
 .text          0x01082ada       0xd8 C:\JL\pi32\pi32v2-lib\libcompiler-rt.a(truncdfsf2.o)
                0x01082ada                __truncdfsf2
 .text          0x01082bb2       0x10 C:\JL\pi32\pi32v2-lib\libcompiler-rt.a(udivdi3.o)
                0x01082bb2                __udivdi3
 .text          0x01082bc2      0x236 C:\JL\pi32\pi32v2-lib\libcompiler-rt.a(udivmoddi4.o)
                0x01082bc2                __udivmoddi4
 .text          0x01082df8       0x14 C:\JL\pi32\pi32v2-lib\libcompiler-rt.a(umoddi3.o)
                0x01082df8                __umoddi3
 *(.rodata*)
 .rodata.str1.1
                0x01082e0c     0x1be2 cpu\AC521x\tools\main.or32.o
 *fill*         0x010849ee       0x12 
 .rodata        0x01084a00    0x214f4 cpu\AC521x\tools\main.or32.o
 *fill*         0x010a5ef4        0xc 
 .rodata.str1.16
                0x010a5f00      0x5c0 cpu\AC521x\tools\main.or32.o
                                0x5b8 (size before relaxing)
 .rodata.str4.4
                0x010a64c0      0x278 cpu\AC521x\tools\main.or32.o
 .rodata.cst16  0x010a6738       0x10 cpu\AC521x\tools\main.or32.o
 .rodata.cst32  0x010a6748       0x20 cpu\AC521x\tools\main.or32.o
 .rodata.cst8   0x010a6768        0x8 cpu\AC521x\tools\main.or32.o
 .rodata        0x010a6770        0xc include_lib/liba/AC521x/aac_enc_lib.a(AAC_E_SAMPLES.o)
                0x010a6770                aac_enc_opst
 *fill*         0x010a677c        0x4 
 .rodata.str1.16
                0x010a6780       0x33 include_lib/liba/AC521x/aac_enc_lib.a(AAC_E_SAMPLES.o)
 *fill*         0x010a67b3        0x1 
 .rodata        0x010a67b4     0x5a3a include_lib/liba/AC521x/aac_enc_lib.a(aac_rom.o)
                0x010a67b4                cossintab
                0x010a79b4                twidTab512
                0x010a8974                twidTab64
                0x010a8b54                ShortWindowSine
                0x010a8c54                LongWindowKBD
                0x010a9454                formfac_sqrttable
                0x010a95d4                mTab_3_4
                0x010a9dd4                mTab_4_3
                0x010aa5d4                invSBF
                0x010aa634                pow2tominusNover16
                0x010aa656                sideInfoTabLong
                0x010aa6be                sideInfoTabShort
                0x010aa6e0                specExpMantTableComb_enc
                0x010aa7c0                specExpTableComb_enc
                0x010aa7f8                quantBorders
                0x010aa818                quantRecon
                0x010aa830                sampRateTab
                0x010aa860                rates
                0x010aa880                BandwithCoefTab
                0x010aaa00                sfBandTotalShort
                0x010aaa0c                sfBandTotalLong
                0x010aaa18                sfBandTabShortOffset
                0x010aaa48                sfBandTabShort
                0x010aaae0                sfBandTabLongOffset
                0x010aab10                sfBandTabLong
                0x010aad9a                huff_ltab1_2
                0x010aae3c                huff_ltab3_4
                0x010aaede                huff_ltab5_6
                0x010aaf80                huff_ltab7_8
                0x010ab000                huff_ltab9_10
                0x010ab152                huff_ltab11
                0x010ab394                huff_ltabscf
                0x010ab486                huff_ctab1
                0x010ab528                huff_ctab2
                0x010ab5ca                huff_ctab3
                0x010ab66c                huff_ctab4
                0x010ab70e                huff_ctab5
                0x010ab7b0                huff_ctab6
                0x010ab852                huff_ctab7
                0x010ab8d2                huff_ctab8
                0x010ab952                huff_ctab9
                0x010abaa4                huff_ctab10
                0x010abbf6                huff_ctab11
                0x010abe38                huff_ctabscf
                0x010ac01c                m_log2_table
                0x010ac09c                tnsCoeff3
                0x010ac0bc                tnsCoeff3Borders
                0x010ac0dc                tnsCoeff4
                0x010ac11c                tnsCoeff4Borders
                0x010ac15c                bitrevTab
 *fill*         0x010ac1ee        0x2 
 .rodata        0x010ac1f0       0x44 include_lib/liba/AC521x/aac_enc_lib.a(bit_cnt.o)
 .rodata        0x010ac234       0x48 include_lib/liba/AC521x/aac_enc_lib.a(block_switch.o)
                0x010ac234                hiPassCoeff
 .rodata.cst32  0x010ac27c       0x20 include_lib/liba/AC521x/aac_enc_lib.a(block_switch.o)
 .rodata        0x010ac29c       0x10 include_lib/liba/AC521x/aac_enc_lib.a(dyn_bits.o)
 .rodata        0x010ac2ac      0x400 include_lib/liba/AC521x/aac_enc_lib.a(oper_32b.o)
 .rodata        0x010ac6ac       0x32 include_lib/liba/AC521x/aac_enc_lib.a(psy_configuration.o)
 .rodata.cst8   0x010ac6de        0x8 include_lib/liba/AC521x/aac_enc_lib.a(psy_main.o)
 .rodata        0x010ac6e6      0x281 include_lib/liba/AC521x/libc.a(lib_a-ctype_.o)
                0x010ac866                _ctype_
 *fill*         0x010ac967        0x1 
 .rodata        0x010ac968        0x4 include_lib/liba/AC521x/libc.a(lib_a-impure.o)
                0x010ac968                _global_impure_ptr
 .rodata.str1.1
                0x010ac96c        0x0 include_lib/liba/AC521x/libc.a(lib_a-impure.o)
                                  0x2 (size before relaxing)
 *(.opus_enc_lib.text)
 *(.speex_enc_lib.text)
 *(.amr_enc_lib.text)
 *(.amr_dec_lib.text)
 *(.mp3_dec_lib.text)
 *(.wma_dec_lib.text)
 *(.m4a_dec_lib.text)
 *(.ape_dec_lib.text)
 *(.flac_dec_lib.text)
 *(.lib_resample_a.text)
 *(.libBtCalling.text)
 *(.libhtk.text)
 *(.libvad.text)
                0x010ac96c                _text_rodata_end = .
                [!provide]                PROVIDE (text_rodata_end, .)
                0x010ac96c                . = ALIGN (0x4)

.data           0x010ac96c     0x561c
                0x010ac96c                . = ALIGN (0x4)
 *(.data)
 *fill*         0x010ac96c       0x14 
 .data          0x010ac980     0x2658 cpu\AC521x\tools\main.or32.o
 .data          0x010aefd8        0x4 include_lib/liba/AC521x/libc.a(lib_a-ctype_.o)
                0x010aefd8                __ctype_ptr__
 .data          0x010aefdc      0x428 include_lib/liba/AC521x/libc.a(lib_a-impure.o)
                0x010aefdc                _impure_ptr
                0x010af420                . = ALIGN (0x20)
 *fill*         0x010af404       0x1c 
                0x010af420                . = ALIGN (0x4)
                0x010af420                vfs_ops_begin = .
 *(.vfs_operations)
 .vfs_operations
                0x010af420      0x1f4 cpu\AC521x\tools\main.or32.o
                0x010af614                vfs_ops_end = .
                0x010af614                _lcd_device_begin = .
                [!provide]                PROVIDE (lcd_device_begin, .)
 *(.lcd_device)
 .lcd_device    0x010af614      0x3c0 cpu\AC521x\tools\main.or32.o
                0x010af9d4                _lcd_device_end = .
                [!provide]                PROVIDE (lcd_device_end, .)
                0x010af9d4                _lcd_device_drive_begin = .
                0x010af9d4                PROVIDE (lcd_device_drive_begin, .)
 *(.lcd_device_drive)
 .lcd_device_drive
                0x010af9d4       0x24 cpu\AC521x\tools\main.or32.o
                0x010af9f8                _lcd_device_drive_end = .
                0x010af9f8                PROVIDE (lcd_device_drive_end, .)
                0x010af9f8                _gsensor_dev_begin = .
                [!provide]                PROVIDE (gsensor_dev_begin, .)
 *(.gsensor_dev)
                0x010af9f8                _gsensor_dev_end = .
                [!provide]                PROVIDE (gsensor_dev_end, .)
                0x010af9f8                _touch_panel_dev_begin = .
                0x010af9f8                PROVIDE (touch_panel_dev_begin, .)
 *(.touch_panel_dev)
 .touch_panel_dev
                0x010af9f8       0x18 cpu\AC521x\tools\main.or32.o
                0x010afa10                _touch_panel_dev_end = .
                0x010afa10                PROVIDE (touch_panel_dev_end, .)
                0x010afa10                _isp_scr_begin = .
                0x010afa10                PROVIDE (isp_scr_begin, .)
 *(.isp_scr_work)
 .isp_scr_work  0x010afa10       0x20 cpu\AC521x\tools\main.or32.o
                0x010afa30                _isp_scr_end = .
                0x010afa30                PROVIDE (isp_scr_end, .)
                0x010afa30                _power_dev_begin = .
                [!provide]                PROVIDE (power_dev_begin, .)
 *(.power_dev)
                0x010afa30                _power_dev_end = .
                [!provide]                PROVIDE (power_dev_end, .)
                0x010afa30                _eth_phy_device_begin = .
                [!provide]                PROVIDE (eth_phy_device_begin, .)
 *(.eth_phy_device)
                0x010afa30                _eth_phy_device_end = .
                [!provide]                PROVIDE (eth_phy_device_end, .)
                0x010afa30                _ui_style_begin = .
                0x010afa30                PROVIDE (ui_style_begin, .)
 *(.ui_style)
 .ui_style      0x010afa30       0x24 cpu\AC521x\tools\main.or32.o
                0x010afa54                _ui_style_end = .
                0x010afa54                PROVIDE (ui_style_end, .)
                0x010afa54                _elm_event_handler_begin_UPGRADE = .
                0x010afa54                PROVIDE (elm_event_handler_begin_UPGRADE, .)
 *(.elm_event_handler_UPGRADE)
                0x010afa54                _elm_event_handler_end_UPGRADE = .
                0x010afa54                PROVIDE (elm_event_handler_end_UPGRADE, .)
                0x010afa54                _elm_event_handler_begin_JL02 = .
                0x010afa54                PROVIDE (elm_event_handler_begin_JL02, .)
 *(.elm_event_handler_JL02)
 .elm_event_handler_JL02
                0x010afa54     0x13d0 cpu\AC521x\tools\main.or32.o
                0x010b0e24                _elm_event_handler_end_JL02 = .
                0x010b0e24                PROVIDE (elm_event_handler_end_JL02, .)
                0x010b0e24                _elm_event_handler_begin_ANI = .
                0x010b0e24                PROVIDE (elm_event_handler_begin_ANI, .)
 *(.elm_event_handler_ANI)
 .elm_event_handler_ANI
                0x010b0e24       0x20 cpu\AC521x\tools\main.or32.o
                0x010b0e44                _elm_event_handler_end_ANI = .
                0x010b0e44                PROVIDE (elm_event_handler_end_ANI, .)
                0x010b0e44                _elm_event_handler_begin_LY = .
                [!provide]                PROVIDE (elm_event_handler_begin_LY, .)
 *(.elm_event_handler_LY)
                0x010b0e44                _elm_event_handler_end_LY = .
                [!provide]                PROVIDE (elm_event_handler_end_LY, .)
                0x010b0e44                _control_event_handler_begin = .
                [!provide]                PROVIDE (control_event_handler_begin, .)
 *(.control_event_handler)
                0x010b0e44                _control_event_handler_end = .
                [!provide]                PROVIDE (control_event_handler_end, .)
                0x010b0e44                _control_ops_begin = .
                0x010b0e44                PROVIDE (control_ops_begin, .)
 *(.control_ops)
 .control_ops   0x010b0e44       0xb4 cpu\AC521x\tools\main.or32.o
                0x010b0ef8                _control_ops_end = .
                0x010b0ef8                PROVIDE (control_ops_end, .)
                0x010b0ef8                _vg_event_handler_begin = .
                [!provide]                PROVIDE (vg_event_handler_begin, .)
 *(.vg_event_handler)
                0x010b0ef8                _vg_event_handler_end = .
                [!provide]                PROVIDE (vg_event_handler_end, .)
                0x010b0ef8                _on_show_map_begin = .
                [!provide]                PROVIDE (on_show_map_begin, .)
 *(.on_show_map)
                0x010b0ef8                _on_show_map_end = .
                [!provide]                PROVIDE (on_show_map_end, .)
                0x010b0ef8                _on_click_map_begin = .
                [!provide]                PROVIDE (on_click_map_begin, .)
 *(.on_click_map)
                0x010b0ef8                _on_click_map_end = .
                [!provide]                PROVIDE (on_click_map_end, .)
                0x010b0ef8                _on_touch_map_begin = .
                [!provide]                PROVIDE (on_touch_map_begin, .)
 *(.on_touch_map)
                0x010b0ef8                _on_touch_map_end = .
                [!provide]                PROVIDE (on_touch_map_end, .)
                0x010b0ef8                _on_change_map_begin = .
                [!provide]                PROVIDE (on_change_map_begin, .)
 *(.on_change_map)
                0x010b0ef8                _on_change_map_end = .
                [!provide]                PROVIDE (on_change_map_end, .)
                0x010b0ef8                _on_key_map_begin = .
                [!provide]                PROVIDE (on_key_map_begin, .)
 *(.on_key_map)
                0x010b0ef8                _on_key_map_end = .
                [!provide]                PROVIDE (on_key_map_end, .)
                0x010b0ef8                _img_loader_begin = .
                [!provide]                PROVIDE (img_loader_begin, .)
 *(.img_loader)
                0x010b0ef8                _img_loader_end = .
                [!provide]                PROVIDE (img_loader_end, .)
                0x010b0ef8                _battery_notify_begin = .
                [!provide]                PROVIDE (battery_notify_begin, .)
 *(.battery_notify)
                0x010b0ef8                _battery_notify_end = .
                [!provide]                PROVIDE (battery_notify_end, .)
                0x010b0ef8                __face_icon_begin = .
                0x010b0ef8                PROVIDE (face_icon_begin, .)
 *(.face_icon)
                0x010b0ef8                __face_icon_end = .
                0x010b0ef8                PROVIDE (face_icon_end, .)
                0x010b0ef8                _lib_version_begin = .
                [!provide]                PROVIDE (lib_version_begin, .)
 *(.lib_version)
 .lib_version   0x010b0ef8       0x58 cpu\AC521x\tools\main.or32.o
                0x010b0ef8                __version_fs
                0x010b0efc                __version_fatfs
                0x010b0f00                __version_flashfs
                0x010b0f04                __version_upgrade_server
                0x010b0f08                __version_server_core
                0x010b0f0c                __version_ui_server
                0x010b0f10                __version_video_engine_server
                0x010b0f14                __version_video_dec_server
                0x010b0f18                __version_vunpkg_server
                0x010b0f1c                __version_audio_server
                0x010b0f20                __version_wav_enc
                0x010b0f24                __version_usb_server
                0x010b0f28                __version_video_server
                0x010b0f2c                __version_vpkg_server
                0x010b0f30                __version_audio
                0x010b0f34                __version_video_dev
                0x010b0f38                __version_sys
                0x010b0f3c                __version_cpu
                0x010b0f40                __version_isp
                0x010b0f44                __version_sdfile
                0x010b0f48                __version_devfs
                0x010b0f4c                __version_ramfs
                0x010b0f50                _lib_version_end = .
                [!provide]                PROVIDE (lib_version_end, .)
                0x010b0f50                _initcall_begin = .
                0x010b0f50                PROVIDE (initcall_begin, .)
 *(.initcall)
 .initcall      0x010b0f50       0x24 cpu\AC521x\tools\main.or32.o
                0x010b0f50                __initcall_app_config_init
                0x010b0f54                __initcall_spi_flash_write_protect
                0x010b0f58                __initcall_video_engine_server_init
                0x010b0f5c                __initcall_usb_server_init
                0x010b0f60                __initcall_video_server_init
                0x010b0f64                __initcall_vpkg_server_init
                0x010b0f68                __initcall_log_time_init
                0x010b0f6c                __initcall_spi_flash_jm
                0x010b0f70                __initcall_touch_panel_startup
                0x010b0f74                _initcall_end = .
                0x010b0f74                PROVIDE (initcall_end, .)
                0x010b0f74                _early_initcall_begin = .
                0x010b0f74                PROVIDE (early_initcall_begin, .)
 *(.early.initcall)
 .early.initcall
                0x010b0f74       0x24 cpu\AC521x\tools\main.or32.o
                0x010b0f74                __initcall___sd_mutex_init
                0x010b0f78                __initcall_app_version_check
                0x010b0f7c                __initcall_sys_event_init
                0x010b0f80                __initcall_wait_completion_init
                0x010b0f84                __initcall___crc16_mutex_init
                0x010b0f88                __initcall_dma_copy_init
                0x010b0f8c                __initcall_port_wakeup_init
                0x010b0f90                __initcall_timer1_init
                0x010b0f94                __initcall___sfc_spi0_mutex_init
                0x010b0f98                _early_initcall_end = .
                0x010b0f98                PROVIDE (early_initcall_end, .)
                0x010b0f98                _late_initcall_begin = .
                0x010b0f98                PROVIDE (late_initcall_begin, .)
 *(.late.initcall)
 .late.initcall
                0x010b0f98       0x20 cpu\AC521x\tools\main.or32.o
                0x010b0f98                __initcall_auto_test_init
                0x010b0f9c                __initcall_parking_detect_init
                0x010b0fa0                __initcall_usb_user_mutex_init
                0x010b0fa4                __initcall_uvc_upgrade_event_init
                0x010b0fa8                __initcall_usb0_init
                0x010b0fac                __initcall_sdk_meky_check
                0x010b0fb0                __initcall_init_application
                0x010b0fb4                __initcall_sys_timer_init
                0x010b0fb8                _late_initcall_end = .
                0x010b0fb8                PROVIDE (late_initcall_end, .)
                0x010b0fb8                _platform_initcall_begin = .
                0x010b0fb8                PROVIDE (platform_initcall_begin, .)
 *(.platform.initcall)
 .platform.initcall
                0x010b0fb8        0x8 cpu\AC521x\tools\main.or32.o
                0x010b0fb8                __initcall_adc_scan_init
                0x010b0fbc                __initcall_register_fbinfo
                0x010b0fc0                _platform_initcall_end = .
                0x010b0fc0                PROVIDE (platform_initcall_end, .)
                0x010b0fc0                _module_initcall_begin = .
                0x010b0fc0                PROVIDE (module_initcall_begin, .)
 *(.module.initcall)
 .module.initcall
                0x010b0fc0        0x8 cpu\AC521x\tools\main.or32.o
                0x010b0fc0                __initcall_thread_fork_init
                0x010b0fc4                __initcall_audio_server_init
                0x010b0fc8                _module_initcall_end = .
                0x010b0fc8                PROVIDE (module_initcall_end, .)
                0x010b0fc8                _sys_event_handler_begin = .
                0x010b0fc8                PROVIDE (sys_event_handler_begin, .)
 *(.sys_event.4.handler)
 .sys_event.4.handler
                0x010b0fc8       0x10 cpu\AC521x\tools\main.or32.o
                0x010b0fc8                __event_handler_backlight_charge_event_handler
                0x010b0fd0                __event_handler_backlight_event_handler
 *(.sys_event.3.handler)
 .sys_event.3.handler
                0x010b0fd8        0x8 cpu\AC521x\tools\main.or32.o
                0x010b0fd8                __event_handler_key_event_handler
 *(.sys_event.2.handler)
 *(.sys_event.1.handler)
 *(.sys_event.0.handler)
 .sys_event.0.handler
                0x010b0fe0       0x28 cpu\AC521x\tools\main.or32.o
                0x010b0fe0                __event_handler_device_event_handler
                0x010b0fe8                __event_handler_video_device_event_handler
                0x010b0ff0                __event_handler_msg_device_event_handler
                0x010b0ff8                __event_handler_sys_power_event_handler
                0x010b1000                __event_handler_uvc_device_event_handler
                0x010b1008                _sys_event_handler_end = .
                0x010b1008                PROVIDE (sys_event_handler_end, .)
                0x010b1008                _syscfg_arg_begin = .
                [!provide]                PROVIDE (syscfg_arg_begin, .)
 *(.syscfg.arg)
                0x010b1008                _syscfg_arg_end = .
                [!provide]                PROVIDE (syscfg_arg_end, .)
                0x010b1008                _syscfg_handler_begin = .
                [!provide]                PROVIDE (syscfg_handler_begin, .)
 *(.syscfg.handler)
                0x010b1008                _syscfg_handler_end = .
                [!provide]                PROVIDE (syscfg_handler_end, .)
                0x010b1008                _server_info_begin = .
                0x010b1008                PROVIDE (server_info_begin, .)
 *(.server_info)
 .server_info   0x010b1008       0x90 cpu\AC521x\tools\main.or32.o
                0x010b1008                upgrade_server_info
                0x010b1018                ui_server_info
                0x010b1028                video_engine_server_info
                0x010b1038                video_dec_server_info
                0x010b1048                vunpkg_server_info
                0x010b1058                audio_server_info
                0x010b1068                usb_server_info
                0x010b1078                video_server_info
                0x010b1088                vpkg_server_info
                0x010b1098                _server_info_end = .
                0x010b1098                PROVIDE (server_info_end, .)
                0x010b1098                _app_begin = .
                0x010b1098                PROVIDE (app_begin, .)
 *(.app)
 .app           0x010b1098       0xc0 cpu\AC521x\tools\main.or32.o
                0x010b1158                _app_end = .
                0x010b1158                PROVIDE (app_end, .)
                0x010b1158                _bus_device_begin = .
                0x010b1158                PROVIDE (bus_device_begin, .)
 *(.bus_device)
                0x010b1158                _bus_device_end = .
                0x010b1158                PROVIDE (bus_device_end, .)
                0x010b1158                _sys_power_hal_ops_begin = .
                0x010b1158                PROVIDE (sys_power_hal_ops_begin, .)
 *(.sys_power_hal_ops)
 .sys_power_hal_ops
                0x010b1158       0x20 cpu\AC521x\tools\main.or32.o
                0x010b1178                _sys_power_hal_ops_end = .
                [!provide]                PROVIDE (sys_power_hal_ops_end, .)
                0x010b1180                . = ALIGN (0x20)
 *fill*         0x010b1178        0x8 
                0x010b1180                _camera_dev_begin = .
                0x010b1180                PROVIDE (camera_dev_begin, .)
 *(.camera_dev)
 .camera_dev    0x010b1180       0x74 cpu\AC521x\tools\main.or32.o
                0x010b11f4                _camera_dev_end = .
                0x010b11f4                PROVIDE (camera_dev_end, .)
                0x010b11f4                _adc_scan_begin = .
                0x010b11f4                PROVIDE (adc_scan_begin, .)
 *(.adc_scan)
 .adc_scan      0x010b11f4       0x18 cpu\AC521x\tools\main.or32.o
                0x010b120c                _adc_scan_end = .
                0x010b120c                PROVIDE (adc_scan_end, .)
                0x010b120c                _spi_device_begin = .
                [!provide]                PROVIDE (spi_device_begin, .)
 *(.spi_device)
                0x010b120c                _spi_device_end = .
                [!provide]                PROVIDE (spi_device_end, .)
                0x010b1220                . = ALIGN (0x20)
 *fill*         0x010b120c       0x14 
                0x010b1220                _device_node_begin = .
                0x010b1220                PROVIDE (device_node_begin, .)
 *(.device)
 .device        0x010b1220      0x12c cpu\AC521x\tools\main.or32.o
                0x010b1220                device_table
                0x010b1340                virtual_audio_dev
                0x010b134c                _device_node_end = .
                0x010b134c                PROVIDE (device_node_end, .)
                0x010b134c                _audio_output_handler_begin = .
                0x010b134c                PROVIDE (audio_output_handler_begin, .)
 *(.audio_output_handler)
                0x010b134c                _audio_output_handler_end = .
                0x010b134c                PROVIDE (audio_output_handler_end, .)
                0x010b134c                PROVIDE (audio_input_handler_begin, .)
 *(.audio_input_handler)
                0x010b134c                _audio_input_handler_end = .
                0x010b134c                PROVIDE (audio_input_handler_end, .)
                0x010b134c                _video_subdev_begin = .
                [!provide]                PROVIDE (video_subdev_begin, .)
 *(.video_subdev.0)
 .video_subdev.0
                0x010b134c       0x3c cpu\AC521x\tools\main.or32.o
                0x010b134c                camera_subdev
                0x010b1360                djpeg_subdev
                0x010b1374                isp_subdev
 *(.video_subdev.1)
 .video_subdev.1
                0x010b1388       0x14 cpu\AC521x\tools\main.or32.o
                0x010b1388                fb_video_device
 *(.video_subdev.2)
 *(.video_subdev.3)
 *(.video_subdev.4)
 *(.video_subdev.5)
                0x010b139c                _video_subdev_end = .
                [!provide]                PROVIDE (video_subdev_end, .)
                0x010b139c                _audio_subdev_begin = .
                0x010b139c                PROVIDE (audio_subdev_begin, .)
 *(.audio_subdev.0)
 .audio_subdev.0
                0x010b139c       0x24 cpu\AC521x\tools\main.or32.o
                0x010b139c                subdev_aac_enc
                0x010b13a8                subdev_dac
                0x010b13b4                subdev_user_dec
 *(.audio_subdev.1)
 .audio_subdev.1
                0x010b13c0        0xc cpu\AC521x\tools\main.or32.o
                0x010b13c0                subdev_pcm_enc
 *(.audio_subdev.2)
 .audio_subdev.2
                0x010b13cc       0x30 cpu\AC521x\tools\main.or32.o
                0x010b13cc                subdev_adc
                0x010b13d8                subdev_iis_dec
                0x010b13e4                subdev_iis_enc
                0x010b13f0                subdev_user_enc
 *(.audio_subdev.3)
                0x010b13fc                _audio_subdev_end = .
                0x010b13fc                PROVIDE (audio_subdev_end, .)
                0x010b13fc                _iic_device_begin = .
                0x010b13fc                PROVIDE (iic_device_begin, .)
 *(.iic)
 .iic           0x010b13fc       0x28 cpu\AC521x\tools\main.or32.o
                0x010b1424                _iic_device_end = .
                0x010b1424                PROVIDE (iic_device_end, .)
                0x010b1424                _avin_spi_device_begin = .
                0x010b1424                PROVIDE (avin_spi_device_begin, .)
 *(.sw_spi)
 .sw_spi        0x010b1424       0x6c cpu\AC521x\tools\main.or32.o
                0x010b1490                _avin_spi_device_end = .
                0x010b1490                PROVIDE (avin_spi_device_end, .)
                0x010b1490                _video_dev_begin = .
                0x010b1490                PROVIDE (video_dev_begin, .)
 *(.video_device)
 .video_device  0x010b1490      0x118 cpu\AC521x\tools\main.or32.o
                0x010b15a8                _video_dev_end = .
                0x010b15a8                PROVIDE (video_dev_end, .)
                0x010b15a8                _uart_device_begin = .
                0x010b15a8                PROVIDE (uart_device_begin, .)
 *(.uart)
 .uart          0x010b15a8      0x1c0 cpu\AC521x\tools\main.or32.o
                0x010b1768                _uart_device_end = .
                0x010b1768                PROVIDE (uart_device_end, .)
                0x010b1780                . = ALIGN (0x20)
 *fill*         0x010b1768       0x18 
                0x010b1780                _key_driver_begin = .
                0x010b1780                PROVIDE (key_driver_begin, .)
 *(.key_driver)
 .key_driver    0x010b1780       0x3c cpu\AC521x\tools\main.or32.o
                0x010b17bc                _key_driver_end = .
                0x010b17bc                PROVIDE (key_driver_end, .)
                0x010b17bc                _touch_driver_begin = .
                [!provide]                PROVIDE (touch_driver_begin, .)
 *(.touch_driver)
                0x010b17bc                _touch_driver_end = .
                [!provide]                PROVIDE (touch_driver_end, .)
                0x010b17bc                _static_hi_timer_begin = .
                0x010b17bc                PROVIDE (static_hi_timer_begin, .)
 *(.hi_timer)
                0x010b17bc                _static_hi_timer_end = .
                0x010b17bc                PROVIDE (static_hi_timer_end, .)
                0x010b17bc                _sys_cpu_timer_begin = .
                0x010b17bc                PROVIDE (sys_cpu_timer_begin, .)
 *(.sys_cpu_timer)
 .sys_cpu_timer
                0x010b17bc       0x10 cpu\AC521x\tools\main.or32.o
                0x010b17bc                cpu_timer2
                0x010b17cc                _sys_cpu_timer_end = .
                0x010b17cc                PROVIDE (sys_cpu_timer_end, .)
                0x010b17cc                _sys_config_begin = .
                [!provide]                PROVIDE (sys_config_begin, .)
 *(.sys_cfg)
                0x010b17cc                _sys_config_end = .
                [!provide]                PROVIDE (sys_config_end, .)
                0x010b17cc                _audio_decoder_begin = .
                0x010b17cc                PROVIDE (audio_decoder_begin, .)
 *(.audio_decoder)
 .audio_decoder
                0x010b17cc       0x50 cpu\AC521x\tools\main.or32.o
                0x010b17cc                pcm_decoder_ops
                0x010b17f4                adpcm_decoder_ops
                0x010b181c                _audio_decoder_end = .
                0x010b181c                PROVIDE (audio_decoder_end, .)
                0x010b181c                _audio_package_begin = .
                0x010b181c                PROVIDE (audio_package_begin, .)
 *(.audio_package)
 .audio_package
                0x010b181c       0x60 cpu\AC521x\tools\main.or32.o
                0x010b181c                wav_package_ops
                0x010b1834                spx_package_ops
                0x010b184c                amr_package_ops
                0x010b1864                opus_package_ops
                0x010b187c                _audio_package_end = .
                0x010b187c                PROVIDE (audio_package_end, .)
                0x010b1880                . = ALIGN (0x20)
 *fill*         0x010b187c        0x4 
                0x010b188c                . = (((. + 0x1f) / 0x20) * 0x20)
 *fill*         0x010b1880        0xc 
                0x010b188c                _layer_buf_begin = .
                [!provide]                PROVIDE (layer_buf_begin, .)
 *(.layer_buf_t)
                0x010b188c                _layer_buf_end = .
                [!provide]                PROVIDE (layer_buf_end, .)
                0x010b188c                . = (((. + 0x1f) / 0x20) * 0x20)
                0x010b188c                _font_info_begin = .
                0x010b188c                PROVIDE (font_info_begin, .)
 *(.font_info_t)
 .font_info_t   0x010b188c      0x6e0 cpu\AC521x\tools\main.or32.o
                0x010b1f6c                _font_info_end = .
                0x010b1f6c                PROVIDE (font_info_end, .)
                0x010b1f6c                . = (((. + 0x1f) / 0x20) * 0x20)
                0x010b1f6c                _screen_tool_info_begin = .
                0x010b1f6c                PROVIDE (screen_tool_info_begin, .)
 *(.screen_tool_info)
 .screen_tool_info
                0x010b1f6c       0x1c cpu\AC521x\tools\main.or32.o
                0x010b1f6c                screen
                0x010b1f88                _screen_tool_info_end = .
                [!provide]                PROVIDE (screen_tool_info_end, .)

.pwm_dev        0x010b1f88       0x20
 .pwm_dev       0x010b1f88       0x20 cpu\AC521x\tools\main.or32.o
                0x010b1f88                pwm

.bss            0x010b1fc0    0x25680
 *(.stack)
 .stack         0x010b1fc0     0x2600 include_lib/liba/AC521x/cpu.a(startup.o)
                0x010b22c0                _stack_cpu0
                0x010b32c0                _stack1_cpu0
                0x010b35c0                _stack_cpu1
                0x010b45c0                _stack1_cpu1
                0x010b45c0                _system_data_begin = .
 *(.bss)
 .bss           0x010b45c0    0x23070 cpu\AC521x\tools\main.or32.o
                0x010b4b7c                CurrentTCB
                0x010b4b80                highCurrentTCB
 *(COMMON)
 *(.usb_slave_var)
 *(.mem_heap)
 *(.memp_memory_x)
                0x010d7640                . = (((. + 0x1f) / 0x20) * 0x20)
 *fill*         0x010d7630       0x10 
                0x010d7640                _lcd_dev_buf_addr = .
                [!provide]                PROVIDE (lcd_dev_buf_addr, .)
 *(.lcd_dev_buf)
                0x010d7640                _system_data_end = .
                0x010d7640                . = (((. + 0x1f) / 0x20) * 0x20)
 *(.sys_malloc)
                0x010d7640                . = (((. + 0x1f) / 0x20) * 0x20)
                0x010d7640                _HEAP_BEGIN = (((. + 0x1f) / 0x20) * 0x20)
                0x010d7640                PROVIDE (HEAP_BEGIN, (((. + 0x1f) / 0x20) * 0x20))
                0x017fffe0                _HEAP_END = ((0x1000000 + SDRAM_SIZE) - 0x20)
                0x017fffe0                PROVIDE (HEAP_END, ((0x1000000 + SDRAM_SIZE) - 0x20))
                0x007289a0                _MALLOC_SIZE = (_HEAP_END - _HEAP_BEGIN)
                0x007289a0                PROVIDE (MALLOC_SIZE, (_HEAP_END - _HEAP_BEGIN))
                0x00f00000                . = ORIGIN (ram0)

.ram0_data      0x00f00000        0x0
                0x00f00000                _VM_CODE_START = .
 *(.vm)
                0x00f00000                _VM_CODE_END = .
 *(.flushinv_icache)
                0x00f00000                . = ALIGN (0x4)

.ram0_bss       0x00f00000     0xd700
 *(.sd_var)
 .sd_var        0x00f00000       0x80 cpu\AC521x\tools\main.or32.o
                0x00f00000                sd1_cmd_detect
                0x00f00020                sd1_host_var
 *(.sram)
 .sram          0x00f00080      0x200 cpu\AC521x\tools\main.or32.o
 *(.usb0_fifo)
 .usb0_fifo     0x00f00280     0xd480 cpu\AC521x\tools\main.or32.o
                0x01000000                text_begin = ADDR (.rom_code)
                0x000ac96c                text_size = SIZEOF (.rom_code)
                0x010b1fc0                bss_begin = ADDR (.bss)
                0x00025680                bss_size = SIZEOF (.bss)
                0x00023080                bss_size1 = (_system_data_end - _system_data_begin)
                0x010b45c0                bss_begin1 = _system_data_begin
                0x010ac96c                data_begin = LOADADDR (.data)
                0x010ac96c                data_addr = ADDR (.data)
                0x0000561c                data_size = SIZEOF (.data)
                0x010ac96c                data_vma = ADDR (.data)
                0x010ac96c                data_lma = (text_begin + SIZEOF (.rom_code))
                0x00f00000                _ram0_bss_vma = ADDR (.ram0_bss)
                0x0000d700                _ram0_bss_size = SIZEOF (.ram0_bss)
                0x00f00000                _ram0_data_vma = ADDR (.ram0_data)
                0x010b1f88                _ram0_data_lma = ((text_begin + SIZEOF (.rom_code)) + SIZEOF (.data))
                0x00000000                _ram0_data_size = SIZEOF (.ram0_data)
START GROUP
LOAD include_lib/liba/AC521x/rtos.a
LOAD include_lib/liba/AC521x/sd1.a
LOAD include_lib/liba/AC521x/ascii.a
LOAD include_lib/liba/AC521x/res.a
LOAD include_lib/liba/AC521x/usb.a
LOAD include_lib/liba/AC521x/spec_uart.a
LOAD include_lib/liba/AC521x/usb_cam_dev.a
LOAD include_lib/liba/AC521x/fs.a
LOAD include_lib/liba/AC521x/upgrade.a
LOAD include_lib/liba/AC521x/rs_ecc.a
LOAD include_lib/liba/AC521x/font.a
LOAD include_lib/liba/AC521x/server.a
LOAD include_lib/liba/AC521x/ui_server.a
LOAD include_lib/liba/AC521x/video_engine_server.a
LOAD include_lib/liba/AC521x/video_dec_server.a
LOAD include_lib/liba/AC521x/vm.a
LOAD include_lib/liba/AC521x/audio_server.a
LOAD include_lib/liba/AC521x/cpu_vm_icache.a
LOAD include_lib/liba/AC521x/usb_server.a
LOAD include_lib/liba/AC521x/aac_enc_lib.a
LOAD include_lib/liba/AC521x/video_rec_server.a
LOAD include_lib/liba/AC521x/dev.a
LOAD include_lib/liba/AC521x/audio_dev.a
LOAD include_lib/liba/AC521x/video_dev.a
LOAD include_lib/liba/AC521x/ui.a
LOAD include_lib/liba/AC521x/sys.a
LOAD include_lib/liba/AC521x/cpu.a
LOAD include_lib/liba/AC521x/cpu_disp.a
LOAD include_lib/liba/AC521x/cpu_video.a
LOAD include_lib/liba/AC521x/isp.a
LOAD include_lib/liba/AC521x/mm.a
LOAD include_lib/liba/AC521x/libdetect_face.a
LOAD include_lib/liba/AC521x/lib_usb_syn.a
LOAD include_lib/liba/AC521x/printf.a
LOAD include_lib/liba/AC521x/lbuf.a
LOAD include_lib/liba/AC521x/cbuf.a
LOAD include_lib/liba/AC521x/libc.a
LOAD include_lib/liba/AC521x/libm.a
LOAD include_lib/liba/AC521x/xd_tp.a
END GROUP
LOAD C:\JL\pi32\pi32v2-lib\libm.a
LOAD C:\JL\pi32\pi32v2-lib\libc.a
LOAD C:\JL\pi32\pi32v2-lib\libm.a
LOAD C:\JL\pi32\pi32v2-lib\libcompiler-rt.a
OUTPUT(cpu\AC521x\tools\main.or32 elf32-pi32v2)

.debug_str      0x00000000    0x39b46
 .debug_str     0x00000000    0x36acd cpu\AC521x\tools\main.or32.o
                              0x3ad28 (size before relaxing)
 .debug_str     0x00036acd      0xaac include_lib/liba/AC521x/aac_enc_lib.a(AAC_E_SAMPLES.o)
                                0xba4 (size before relaxing)
 .debug_str     0x00037579      0x2ab include_lib/liba/AC521x/aac_enc_lib.a(aac_rom.o)
                                0x32f (size before relaxing)
 .debug_str     0x00037824       0x81 include_lib/liba/AC521x/aac_enc_lib.a(aacenc.o)
                                0xb64 (size before relaxing)
 .debug_str     0x000378a5       0x92 include_lib/liba/AC521x/aac_enc_lib.a(aacenc_core.o)
                                0xb62 (size before relaxing)
 .debug_str     0x00037937      0x636 include_lib/liba/AC521x/aac_enc_lib.a(adj_thr.o)
                               0x11e3 (size before relaxing)
 .debug_str     0x00037f6d      0x102 include_lib/liba/AC521x/aac_enc_lib.a(band_nrg.o)
                                0x184 (size before relaxing)
 .debug_str     0x0003806f       0x6b include_lib/liba/AC521x/aac_enc_lib.a(basicop2.o)
                                 0xe3 (size before relaxing)
 .debug_str     0x000380da      0x24f include_lib/liba/AC521x/aac_enc_lib.a(bit_cnt.o)
                                0x385 (size before relaxing)
 .debug_str     0x00038329       0x65 include_lib/liba/AC521x/aac_enc_lib.a(bitbuffer.o)
                                0x116 (size before relaxing)
 .debug_str     0x0003838e      0x320 include_lib/liba/AC521x/aac_enc_lib.a(bitenc.o)
                                0x808 (size before relaxing)
 .debug_str     0x000386ae      0x210 include_lib/liba/AC521x/aac_enc_lib.a(block_switch.o)
                                0x450 (size before relaxing)
 .debug_str     0x000388be       0x68 include_lib/liba/AC521x/aac_enc_lib.a(channel_map.o)
                                0x1af (size before relaxing)
 .debug_str     0x00038926      0x2a0 include_lib/liba/AC521x/aac_enc_lib.a(dyn_bits.o)
                                0x64f (size before relaxing)
 .debug_str     0x00038bc6       0x51 include_lib/liba/AC521x/aac_enc_lib.a(grp_data.o)
                                0x199 (size before relaxing)
 .debug_str     0x00038c17       0xb7 include_lib/liba/AC521x/aac_enc_lib.a(interface.o)
                                0x307 (size before relaxing)
 .debug_str     0x00038cce       0x5e include_lib/liba/AC521x/aac_enc_lib.a(line_pe.o)
                                0x326 (size before relaxing)
 .debug_str     0x00038d2c      0x101 include_lib/liba/AC521x/aac_enc_lib.a(ms_stereo.o)
                                0x218 (size before relaxing)
 .debug_str     0x00038e2d      0x10a include_lib/liba/AC521x/aac_enc_lib.a(oper_32b.o)
                                0x1e7 (size before relaxing)
 .debug_str     0x00038f37       0x85 include_lib/liba/AC521x/aac_enc_lib.a(pre_echo_control.o)
                                0x167 (size before relaxing)
 .debug_str     0x00038fbc      0x2f9 include_lib/liba/AC521x/aac_enc_lib.a(psy_configuration.o)
                                0x55a (size before relaxing)
 .debug_str     0x000392b5      0x12f include_lib/liba/AC521x/aac_enc_lib.a(psy_main.o)
                                0x70e (size before relaxing)
 .debug_str     0x000393e4      0x1c6 include_lib/liba/AC521x/aac_enc_lib.a(qc_main.o)
                                0xd40 (size before relaxing)
 .debug_str     0x000395aa      0x12b include_lib/liba/AC521x/aac_enc_lib.a(quantize.o)
                                0x2a9 (size before relaxing)
 .debug_str     0x000396d5      0x173 include_lib/liba/AC521x/aac_enc_lib.a(sf_estim.o)
                                0x4db (size before relaxing)
 .debug_str     0x00039848       0x53 include_lib/liba/AC521x/aac_enc_lib.a(spreading.o)
                                 0xda (size before relaxing)
 .debug_str     0x0003989b      0x10c include_lib/liba/AC521x/aac_enc_lib.a(stat_bits.o)
                                0x2f3 (size before relaxing)
 .debug_str     0x000399a7      0x19f include_lib/liba/AC521x/aac_enc_lib.a(transform.o)
                                0x2b6 (size before relaxing)

.debug_loc      0x00000000    0x54e86
 .debug_loc     0x00000000    0x4c711 cpu\AC521x\tools\main.or32.o
 .debug_loc     0x0004c711       0xc4 include_lib/liba/AC521x/aac_enc_lib.a(AAC_E_SAMPLES.o)
 .debug_loc     0x0004c7d5        0x0 include_lib/liba/AC521x/aac_enc_lib.a(aac_rom.o)
 .debug_loc     0x0004c7d5       0xf8 include_lib/liba/AC521x/aac_enc_lib.a(aacenc.o)
 .debug_loc     0x0004c8cd       0xd9 include_lib/liba/AC521x/aac_enc_lib.a(aacenc_core.o)
 .debug_loc     0x0004c9a6     0x12c3 include_lib/liba/AC521x/aac_enc_lib.a(adj_thr.o)
 .debug_loc     0x0004dc69      0x544 include_lib/liba/AC521x/aac_enc_lib.a(band_nrg.o)
 .debug_loc     0x0004e1ad      0x263 include_lib/liba/AC521x/aac_enc_lib.a(basicop2.o)
 .debug_loc     0x0004e410      0xd4f include_lib/liba/AC521x/aac_enc_lib.a(bit_cnt.o)
 .debug_loc     0x0004f15f       0x88 include_lib/liba/AC521x/aac_enc_lib.a(bitbuffer.o)
 .debug_loc     0x0004f1e7      0x33e include_lib/liba/AC521x/aac_enc_lib.a(bitenc.o)
 .debug_loc     0x0004f525      0x529 include_lib/liba/AC521x/aac_enc_lib.a(block_switch.o)
 .debug_loc     0x0004fa4e       0xa6 include_lib/liba/AC521x/aac_enc_lib.a(channel_map.o)
 .debug_loc     0x0004faf4      0x7dc include_lib/liba/AC521x/aac_enc_lib.a(dyn_bits.o)
 .debug_loc     0x000502d0      0x6c1 include_lib/liba/AC521x/aac_enc_lib.a(grp_data.o)
 .debug_loc     0x00050991      0x309 include_lib/liba/AC521x/aac_enc_lib.a(interface.o)
 .debug_loc     0x00050c9a      0x423 include_lib/liba/AC521x/aac_enc_lib.a(line_pe.o)
 .debug_loc     0x000510bd      0x45e include_lib/liba/AC521x/aac_enc_lib.a(ms_stereo.o)
 .debug_loc     0x0005151b      0x809 include_lib/liba/AC521x/aac_enc_lib.a(oper_32b.o)
 .debug_loc     0x00051d24      0x17f include_lib/liba/AC521x/aac_enc_lib.a(pre_echo_control.o)
 .debug_loc     0x00051ea3      0x6e2 include_lib/liba/AC521x/aac_enc_lib.a(psy_configuration.o)
 .debug_loc     0x00052585      0x615 include_lib/liba/AC521x/aac_enc_lib.a(psy_main.o)
 .debug_loc     0x00052b9a      0x40c include_lib/liba/AC521x/aac_enc_lib.a(qc_main.o)
 .debug_loc     0x00052fa6      0x992 include_lib/liba/AC521x/aac_enc_lib.a(quantize.o)
 .debug_loc     0x00053938      0x823 include_lib/liba/AC521x/aac_enc_lib.a(sf_estim.o)
 .debug_loc     0x0005415b       0x7d include_lib/liba/AC521x/aac_enc_lib.a(spreading.o)
 .debug_loc     0x000541d8       0xa3 include_lib/liba/AC521x/aac_enc_lib.a(stat_bits.o)
 .debug_loc     0x0005427b      0xc0b include_lib/liba/AC521x/aac_enc_lib.a(transform.o)

.debug_abbrev   0x00000000     0x35d6
 .debug_abbrev  0x00000000      0xf14 cpu\AC521x\tools\main.or32.o
 .debug_abbrev  0x00000f14       0x28 include_lib/liba/AC521x/rtos.a(port_asm.o)
 .debug_abbrev  0x00000f3c      0x155 include_lib/liba/AC521x/aac_enc_lib.a(AAC_E_SAMPLES.o)
 .debug_abbrev  0x00001091       0x75 include_lib/liba/AC521x/aac_enc_lib.a(aac_rom.o)
 .debug_abbrev  0x00001106      0x130 include_lib/liba/AC521x/aac_enc_lib.a(aacenc.o)
 .debug_abbrev  0x00001236      0x129 include_lib/liba/AC521x/aac_enc_lib.a(aacenc_core.o)
 .debug_abbrev  0x0000135f      0x297 include_lib/liba/AC521x/aac_enc_lib.a(adj_thr.o)
 .debug_abbrev  0x000015f6       0xcf include_lib/liba/AC521x/aac_enc_lib.a(band_nrg.o)
 .debug_abbrev  0x000016c5      0x154 include_lib/liba/AC521x/aac_enc_lib.a(basicop2.o)
 .debug_abbrev  0x00001819      0x210 include_lib/liba/AC521x/aac_enc_lib.a(bit_cnt.o)
 .debug_abbrev  0x00001a29       0x9a include_lib/liba/AC521x/aac_enc_lib.a(bitbuffer.o)
 .debug_abbrev  0x00001ac3      0x210 include_lib/liba/AC521x/aac_enc_lib.a(bitenc.o)
 .debug_abbrev  0x00001cd3      0x1ed include_lib/liba/AC521x/aac_enc_lib.a(block_switch.o)
 .debug_abbrev  0x00001ec0       0xe9 include_lib/liba/AC521x/aac_enc_lib.a(channel_map.o)
 .debug_abbrev  0x00001fa9      0x1fe include_lib/liba/AC521x/aac_enc_lib.a(dyn_bits.o)
 .debug_abbrev  0x000021a7      0x118 include_lib/liba/AC521x/aac_enc_lib.a(grp_data.o)
 .debug_abbrev  0x000022bf      0x14e include_lib/liba/AC521x/aac_enc_lib.a(interface.o)
 .debug_abbrev  0x0000240d      0x12b include_lib/liba/AC521x/aac_enc_lib.a(line_pe.o)
 .debug_abbrev  0x00002538       0xf0 include_lib/liba/AC521x/aac_enc_lib.a(ms_stereo.o)
 .debug_abbrev  0x00002628      0x1a7 include_lib/liba/AC521x/aac_enc_lib.a(oper_32b.o)
 .debug_abbrev  0x000027cf       0xbf include_lib/liba/AC521x/aac_enc_lib.a(pre_echo_control.o)
 .debug_abbrev  0x0000288e      0x253 include_lib/liba/AC521x/aac_enc_lib.a(psy_configuration.o)
 .debug_abbrev  0x00002ae1      0x1b6 include_lib/liba/AC521x/aac_enc_lib.a(psy_main.o)
 .debug_abbrev  0x00002c97      0x250 include_lib/liba/AC521x/aac_enc_lib.a(qc_main.o)
 .debug_abbrev  0x00002ee7      0x1c1 include_lib/liba/AC521x/aac_enc_lib.a(quantize.o)
 .debug_abbrev  0x000030a8      0x1e5 include_lib/liba/AC521x/aac_enc_lib.a(sf_estim.o)
 .debug_abbrev  0x0000328d       0xae include_lib/liba/AC521x/aac_enc_lib.a(spreading.o)
 .debug_abbrev  0x0000333b      0x10e include_lib/liba/AC521x/aac_enc_lib.a(stat_bits.o)
 .debug_abbrev  0x00003449      0x165 include_lib/liba/AC521x/aac_enc_lib.a(transform.o)
 .debug_abbrev  0x000035ae       0x28 include_lib/liba/AC521x/cpu.a(startup.o)

.debug_info     0x00000000   0x115472
 .debug_info    0x00000000   0x10517c cpu\AC521x\tools\main.or32.o
 .debug_info    0x0010517c      0x117 include_lib/liba/AC521x/rtos.a(port_asm.o)
 .debug_info    0x00105293     0x10a4 include_lib/liba/AC521x/aac_enc_lib.a(AAC_E_SAMPLES.o)
 .debug_info    0x00106337      0x5f7 include_lib/liba/AC521x/aac_enc_lib.a(aac_rom.o)
 .debug_info    0x0010692e     0x1075 include_lib/liba/AC521x/aac_enc_lib.a(aacenc.o)
 .debug_info    0x001079a3     0x1039 include_lib/liba/AC521x/aac_enc_lib.a(aacenc_core.o)
 .debug_info    0x001089dc     0x2ab5 include_lib/liba/AC521x/aac_enc_lib.a(adj_thr.o)
 .debug_info    0x0010b491      0x386 include_lib/liba/AC521x/aac_enc_lib.a(band_nrg.o)
 .debug_info    0x0010b817      0x3da include_lib/liba/AC521x/aac_enc_lib.a(basicop2.o)
 .debug_info    0x0010bbf1      0xb0e include_lib/liba/AC521x/aac_enc_lib.a(bit_cnt.o)
 .debug_info    0x0010c6ff      0x198 include_lib/liba/AC521x/aac_enc_lib.a(bitbuffer.o)
 .debug_info    0x0010c897      0xc87 include_lib/liba/AC521x/aac_enc_lib.a(bitenc.o)
 .debug_info    0x0010d51e      0x7cd include_lib/liba/AC521x/aac_enc_lib.a(block_switch.o)
 .debug_info    0x0010dceb      0x237 include_lib/liba/AC521x/aac_enc_lib.a(channel_map.o)
 .debug_info    0x0010df22      0xa28 include_lib/liba/AC521x/aac_enc_lib.a(dyn_bits.o)
 .debug_info    0x0010e94a      0x35b include_lib/liba/AC521x/aac_enc_lib.a(grp_data.o)
 .debug_info    0x0010eca5      0x476 include_lib/liba/AC521x/aac_enc_lib.a(interface.o)
 .debug_info    0x0010f11b      0x61f include_lib/liba/AC521x/aac_enc_lib.a(line_pe.o)
 .debug_info    0x0010f73a      0x35c include_lib/liba/AC521x/aac_enc_lib.a(ms_stereo.o)
 .debug_info    0x0010fa96      0x8ee include_lib/liba/AC521x/aac_enc_lib.a(oper_32b.o)
 .debug_info    0x00110384      0x1d8 include_lib/liba/AC521x/aac_enc_lib.a(pre_echo_control.o)
 .debug_info    0x0011055c      0xbc3 include_lib/liba/AC521x/aac_enc_lib.a(psy_configuration.o)
 .debug_info    0x0011111f      0xc15 include_lib/liba/AC521x/aac_enc_lib.a(psy_main.o)
 .debug_info    0x00111d34     0x1495 include_lib/liba/AC521x/aac_enc_lib.a(qc_main.o)
 .debug_info    0x001131c9      0x8eb include_lib/liba/AC521x/aac_enc_lib.a(quantize.o)
 .debug_info    0x00113ab4      0xa48 include_lib/liba/AC521x/aac_enc_lib.a(sf_estim.o)
 .debug_info    0x001144fc      0x130 include_lib/liba/AC521x/aac_enc_lib.a(spreading.o)
 .debug_info    0x0011462c      0x335 include_lib/liba/AC521x/aac_enc_lib.a(stat_bits.o)
 .debug_info    0x00114961      0x97a include_lib/liba/AC521x/aac_enc_lib.a(transform.o)
 .debug_info    0x001152db      0x197 include_lib/liba/AC521x/cpu.a(startup.o)

.debug_ranges   0x00000000     0x9148
 .debug_ranges  0x00000000     0x8ba8 cpu\AC521x\tools\main.or32.o
 .debug_ranges  0x00008ba8        0x0 include_lib/liba/AC521x/aac_enc_lib.a(AAC_E_SAMPLES.o)
 .debug_ranges  0x00008ba8        0x0 include_lib/liba/AC521x/aac_enc_lib.a(aac_rom.o)
 .debug_ranges  0x00008ba8       0x18 include_lib/liba/AC521x/aac_enc_lib.a(aacenc.o)
 .debug_ranges  0x00008bc0        0x0 include_lib/liba/AC521x/aac_enc_lib.a(aacenc_core.o)
 .debug_ranges  0x00008bc0      0x1c8 include_lib/liba/AC521x/aac_enc_lib.a(adj_thr.o)
 .debug_ranges  0x00008d88       0x70 include_lib/liba/AC521x/aac_enc_lib.a(band_nrg.o)
 .debug_ranges  0x00008df8       0x30 include_lib/liba/AC521x/aac_enc_lib.a(basicop2.o)
 .debug_ranges  0x00008e28        0x0 include_lib/liba/AC521x/aac_enc_lib.a(bit_cnt.o)
 .debug_ranges  0x00008e28        0x0 include_lib/liba/AC521x/aac_enc_lib.a(bitbuffer.o)
 .debug_ranges  0x00008e28       0xa0 include_lib/liba/AC521x/aac_enc_lib.a(bitenc.o)
 .debug_ranges  0x00008ec8        0x0 include_lib/liba/AC521x/aac_enc_lib.a(block_switch.o)
 .debug_ranges  0x00008ec8        0x0 include_lib/liba/AC521x/aac_enc_lib.a(channel_map.o)
 .debug_ranges  0x00008ec8       0x58 include_lib/liba/AC521x/aac_enc_lib.a(dyn_bits.o)
 .debug_ranges  0x00008f20       0x78 include_lib/liba/AC521x/aac_enc_lib.a(grp_data.o)
 .debug_ranges  0x00008f98        0x0 include_lib/liba/AC521x/aac_enc_lib.a(interface.o)
 .debug_ranges  0x00008f98       0x18 include_lib/liba/AC521x/aac_enc_lib.a(line_pe.o)
 .debug_ranges  0x00008fb0        0x0 include_lib/liba/AC521x/aac_enc_lib.a(ms_stereo.o)
 .debug_ranges  0x00008fb0       0x30 include_lib/liba/AC521x/aac_enc_lib.a(oper_32b.o)
 .debug_ranges  0x00008fe0       0x30 include_lib/liba/AC521x/aac_enc_lib.a(pre_echo_control.o)
 .debug_ranges  0x00009010       0x18 include_lib/liba/AC521x/aac_enc_lib.a(psy_configuration.o)
 .debug_ranges  0x00009028       0x18 include_lib/liba/AC521x/aac_enc_lib.a(psy_main.o)
 .debug_ranges  0x00009040       0x30 include_lib/liba/AC521x/aac_enc_lib.a(qc_main.o)
 .debug_ranges  0x00009070       0x30 include_lib/liba/AC521x/aac_enc_lib.a(quantize.o)
 .debug_ranges  0x000090a0       0x58 include_lib/liba/AC521x/aac_enc_lib.a(sf_estim.o)
 .debug_ranges  0x000090f8       0x38 include_lib/liba/AC521x/aac_enc_lib.a(spreading.o)
 .debug_ranges  0x00009130       0x18 include_lib/liba/AC521x/aac_enc_lib.a(stat_bits.o)
 .debug_ranges  0x00009148        0x0 include_lib/liba/AC521x/aac_enc_lib.a(transform.o)

.debug_macinfo  0x00000000       0x1c
 .debug_macinfo
                0x00000000        0x1 cpu\AC521x\tools\main.or32.o
 .debug_macinfo
                0x00000001        0x1 include_lib/liba/AC521x/aac_enc_lib.a(AAC_E_SAMPLES.o)
 .debug_macinfo
                0x00000002        0x1 include_lib/liba/AC521x/aac_enc_lib.a(aac_rom.o)
 .debug_macinfo
                0x00000003        0x1 include_lib/liba/AC521x/aac_enc_lib.a(aacenc.o)
 .debug_macinfo
                0x00000004        0x1 include_lib/liba/AC521x/aac_enc_lib.a(aacenc_core.o)
 .debug_macinfo
                0x00000005        0x1 include_lib/liba/AC521x/aac_enc_lib.a(adj_thr.o)
 .debug_macinfo
                0x00000006        0x1 include_lib/liba/AC521x/aac_enc_lib.a(band_nrg.o)
 .debug_macinfo
                0x00000007        0x1 include_lib/liba/AC521x/aac_enc_lib.a(basicop2.o)
 .debug_macinfo
                0x00000008        0x1 include_lib/liba/AC521x/aac_enc_lib.a(bit_cnt.o)
 .debug_macinfo
                0x00000009        0x1 include_lib/liba/AC521x/aac_enc_lib.a(bitbuffer.o)
 .debug_macinfo
                0x0000000a        0x1 include_lib/liba/AC521x/aac_enc_lib.a(bitenc.o)
 .debug_macinfo
                0x0000000b        0x1 include_lib/liba/AC521x/aac_enc_lib.a(block_switch.o)
 .debug_macinfo
                0x0000000c        0x1 include_lib/liba/AC521x/aac_enc_lib.a(channel_map.o)
 .debug_macinfo
                0x0000000d        0x1 include_lib/liba/AC521x/aac_enc_lib.a(dyn_bits.o)
 .debug_macinfo
                0x0000000e        0x1 include_lib/liba/AC521x/aac_enc_lib.a(grp_data.o)
 .debug_macinfo
                0x0000000f        0x1 include_lib/liba/AC521x/aac_enc_lib.a(interface.o)
 .debug_macinfo
                0x00000010        0x1 include_lib/liba/AC521x/aac_enc_lib.a(line_pe.o)
 .debug_macinfo
                0x00000011        0x1 include_lib/liba/AC521x/aac_enc_lib.a(ms_stereo.o)
 .debug_macinfo
                0x00000012        0x1 include_lib/liba/AC521x/aac_enc_lib.a(oper_32b.o)
 .debug_macinfo
                0x00000013        0x1 include_lib/liba/AC521x/aac_enc_lib.a(pre_echo_control.o)
 .debug_macinfo
                0x00000014        0x1 include_lib/liba/AC521x/aac_enc_lib.a(psy_configuration.o)
 .debug_macinfo
                0x00000015        0x1 include_lib/liba/AC521x/aac_enc_lib.a(psy_main.o)
 .debug_macinfo
                0x00000016        0x1 include_lib/liba/AC521x/aac_enc_lib.a(qc_main.o)
 .debug_macinfo
                0x00000017        0x1 include_lib/liba/AC521x/aac_enc_lib.a(quantize.o)
 .debug_macinfo
                0x00000018        0x1 include_lib/liba/AC521x/aac_enc_lib.a(sf_estim.o)
 .debug_macinfo
                0x00000019        0x1 include_lib/liba/AC521x/aac_enc_lib.a(spreading.o)
 .debug_macinfo
                0x0000001a        0x1 include_lib/liba/AC521x/aac_enc_lib.a(stat_bits.o)
 .debug_macinfo
                0x0000001b        0x1 include_lib/liba/AC521x/aac_enc_lib.a(transform.o)

.debug_pubnames
                0x00000000    0x25c47
 .debug_pubnames
                0x00000000    0x246fa cpu\AC521x\tools\main.or32.o
 .debug_pubnames
                0x000246fa       0x6e include_lib/liba/AC521x/aac_enc_lib.a(AAC_E_SAMPLES.o)
 .debug_pubnames
                0x00024768      0x375 include_lib/liba/AC521x/aac_enc_lib.a(aac_rom.o)
 .debug_pubnames
                0x00024add       0x23 include_lib/liba/AC521x/aac_enc_lib.a(aacenc.o)
 .debug_pubnames
                0x00024b00       0x32 include_lib/liba/AC521x/aac_enc_lib.a(aacenc_core.o)
 .debug_pubnames
                0x00024b32      0x1c8 include_lib/liba/AC521x/aac_enc_lib.a(adj_thr.o)
 .debug_pubnames
                0x00024cfa       0x44 include_lib/liba/AC521x/aac_enc_lib.a(band_nrg.o)
 .debug_pubnames
                0x00024d3e       0x85 include_lib/liba/AC521x/aac_enc_lib.a(basicop2.o)
 .debug_pubnames
                0x00024dc3      0x130 include_lib/liba/AC521x/aac_enc_lib.a(bit_cnt.o)
 .debug_pubnames
                0x00024ef3       0x45 include_lib/liba/AC521x/aac_enc_lib.a(bitbuffer.o)
 .debug_pubnames
                0x00024f38      0x16a include_lib/liba/AC521x/aac_enc_lib.a(bitenc.o)
 .debug_pubnames
                0x000250a2      0x170 include_lib/liba/AC521x/aac_enc_lib.a(block_switch.o)
 .debug_pubnames
                0x00025212       0x5d include_lib/liba/AC521x/aac_enc_lib.a(channel_map.o)
 .debug_pubnames
                0x0002526f       0xe8 include_lib/liba/AC521x/aac_enc_lib.a(dyn_bits.o)
 .debug_pubnames
                0x00025357       0x2f include_lib/liba/AC521x/aac_enc_lib.a(grp_data.o)
 .debug_pubnames
                0x00025386       0x2f include_lib/liba/AC521x/aac_enc_lib.a(interface.o)
 .debug_pubnames
                0x000253b5       0x66 include_lib/liba/AC521x/aac_enc_lib.a(line_pe.o)
 .debug_pubnames
                0x0002541b       0x34 include_lib/liba/AC521x/aac_enc_lib.a(ms_stereo.o)
 .debug_pubnames
                0x0002544f      0x115 include_lib/liba/AC521x/aac_enc_lib.a(oper_32b.o)
 .debug_pubnames
                0x00025564       0x49 include_lib/liba/AC521x/aac_enc_lib.a(pre_echo_control.o)
 .debug_pubnames
                0x000255ad      0x240 include_lib/liba/AC521x/aac_enc_lib.a(psy_configuration.o)
 .debug_pubnames
                0x000257ed       0xaf include_lib/liba/AC521x/aac_enc_lib.a(psy_main.o)
 .debug_pubnames
                0x0002589c       0xc7 include_lib/liba/AC521x/aac_enc_lib.a(qc_main.o)
 .debug_pubnames
                0x00025963       0xc9 include_lib/liba/AC521x/aac_enc_lib.a(quantize.o)
 .debug_pubnames
                0x00025a2c       0xcd include_lib/liba/AC521x/aac_enc_lib.a(sf_estim.o)
 .debug_pubnames
                0x00025af9       0x30 include_lib/liba/AC521x/aac_enc_lib.a(spreading.o)
 .debug_pubnames
                0x00025b29       0x3f include_lib/liba/AC521x/aac_enc_lib.a(stat_bits.o)
 .debug_pubnames
                0x00025b68       0xdf include_lib/liba/AC521x/aac_enc_lib.a(transform.o)

.debug_pubtypes
                0x00000000    0x20aaf
 .debug_pubtypes
                0x00000000    0x1ee66 cpu\AC521x\tools\main.or32.o
 .debug_pubtypes
                0x0001ee66      0x32b include_lib/liba/AC521x/aac_enc_lib.a(AAC_E_SAMPLES.o)
 .debug_pubtypes
                0x0001f191       0x93 include_lib/liba/AC521x/aac_enc_lib.a(aac_rom.o)
 .debug_pubtypes
                0x0001f224      0x309 include_lib/liba/AC521x/aac_enc_lib.a(aacenc.o)
 .debug_pubtypes
                0x0001f52d      0x304 include_lib/liba/AC521x/aac_enc_lib.a(aacenc_core.o)
 .debug_pubtypes
                0x0001f831      0x34b include_lib/liba/AC521x/aac_enc_lib.a(adj_thr.o)
 .debug_pubtypes
                0x0001fb7c       0x57 include_lib/liba/AC521x/aac_enc_lib.a(band_nrg.o)
 .debug_pubtypes
                0x0001fbd3       0x4c include_lib/liba/AC521x/aac_enc_lib.a(basicop2.o)
 .debug_pubtypes
                0x0001fc1f       0xd5 include_lib/liba/AC521x/aac_enc_lib.a(bit_cnt.o)
 .debug_pubtypes
                0x0001fcf4       0x80 include_lib/liba/AC521x/aac_enc_lib.a(bitbuffer.o)
 .debug_pubtypes
                0x0001fd74      0x181 include_lib/liba/AC521x/aac_enc_lib.a(bitenc.o)
 .debug_pubtypes
                0x0001fef5       0x8f include_lib/liba/AC521x/aac_enc_lib.a(block_switch.o)
 .debug_pubtypes
                0x0001ff84       0x6d include_lib/liba/AC521x/aac_enc_lib.a(channel_map.o)
 .debug_pubtypes
                0x0001fff1       0xc3 include_lib/liba/AC521x/aac_enc_lib.a(dyn_bits.o)
 .debug_pubtypes
                0x000200b4       0x5b include_lib/liba/AC521x/aac_enc_lib.a(grp_data.o)
 .debug_pubtypes
                0x0002010f       0x94 include_lib/liba/AC521x/aac_enc_lib.a(interface.o)
 .debug_pubtypes
                0x000201a3       0x93 include_lib/liba/AC521x/aac_enc_lib.a(line_pe.o)
 .debug_pubtypes
                0x00020236       0x57 include_lib/liba/AC521x/aac_enc_lib.a(ms_stereo.o)
 .debug_pubtypes
                0x0002028d       0x4c include_lib/liba/AC521x/aac_enc_lib.a(oper_32b.o)
 .debug_pubtypes
                0x000202d9       0x5f include_lib/liba/AC521x/aac_enc_lib.a(pre_echo_control.o)
 .debug_pubtypes
                0x00020338       0x83 include_lib/liba/AC521x/aac_enc_lib.a(psy_configuration.o)
 .debug_pubtypes
                0x000203bb      0x163 include_lib/liba/AC521x/aac_enc_lib.a(psy_main.o)
 .debug_pubtypes
                0x0002051e      0x330 include_lib/liba/AC521x/aac_enc_lib.a(qc_main.o)
 .debug_pubtypes
                0x0002084e       0x6a include_lib/liba/AC521x/aac_enc_lib.a(quantize.o)
 .debug_pubtypes
                0x000208b8       0xbf include_lib/liba/AC521x/aac_enc_lib.a(sf_estim.o)
 .debug_pubtypes
                0x00020977       0x5f include_lib/liba/AC521x/aac_enc_lib.a(spreading.o)
 .debug_pubtypes
                0x000209d6       0x70 include_lib/liba/AC521x/aac_enc_lib.a(stat_bits.o)
 .debug_pubtypes
                0x00020a46       0x69 include_lib/liba/AC521x/aac_enc_lib.a(transform.o)

.debug_frame    0x00000000    0x12d0c
 .debug_frame   0x00000000    0x11db4 cpu\AC521x\tools\main.or32.o
 .debug_frame   0x00011db4       0x74 include_lib/liba/AC521x/aac_enc_lib.a(AAC_E_SAMPLES.o)
 .debug_frame   0x00011e28       0x40 include_lib/liba/AC521x/aac_enc_lib.a(aacenc.o)
 .debug_frame   0x00011e68       0x5c include_lib/liba/AC521x/aac_enc_lib.a(aacenc_core.o)
 .debug_frame   0x00011ec4       0xb4 include_lib/liba/AC521x/aac_enc_lib.a(adj_thr.o)
 .debug_frame   0x00011f78       0x74 include_lib/liba/AC521x/aac_enc_lib.a(band_nrg.o)
 .debug_frame   0x00011fec       0x8c include_lib/liba/AC521x/aac_enc_lib.a(basicop2.o)
 .debug_frame   0x00012078      0x1b8 include_lib/liba/AC521x/aac_enc_lib.a(bit_cnt.o)
 .debug_frame   0x00012230       0x60 include_lib/liba/AC521x/aac_enc_lib.a(bitbuffer.o)
 .debug_frame   0x00012290       0x90 include_lib/liba/AC521x/aac_enc_lib.a(bitenc.o)
 .debug_frame   0x00012320       0xa8 include_lib/liba/AC521x/aac_enc_lib.a(block_switch.o)
 .debug_frame   0x000123c8       0x58 include_lib/liba/AC521x/aac_enc_lib.a(channel_map.o)
 .debug_frame   0x00012420       0x9c include_lib/liba/AC521x/aac_enc_lib.a(dyn_bits.o)
 .debug_frame   0x000124bc       0x44 include_lib/liba/AC521x/aac_enc_lib.a(grp_data.o)
 .debug_frame   0x00012500       0x44 include_lib/liba/AC521x/aac_enc_lib.a(interface.o)
 .debug_frame   0x00012544       0x74 include_lib/liba/AC521x/aac_enc_lib.a(line_pe.o)
 .debug_frame   0x000125b8       0x44 include_lib/liba/AC521x/aac_enc_lib.a(ms_stereo.o)
 .debug_frame   0x000125fc       0xd8 include_lib/liba/AC521x/aac_enc_lib.a(oper_32b.o)
 .debug_frame   0x000126d4       0x54 include_lib/liba/AC521x/aac_enc_lib.a(pre_echo_control.o)
 .debug_frame   0x00012728      0x144 include_lib/liba/AC521x/aac_enc_lib.a(psy_configuration.o)
 .debug_frame   0x0001286c       0x70 include_lib/liba/AC521x/aac_enc_lib.a(psy_main.o)
 .debug_frame   0x000128dc       0xdc include_lib/liba/AC521x/aac_enc_lib.a(qc_main.o)
 .debug_frame   0x000129b8       0xc0 include_lib/liba/AC521x/aac_enc_lib.a(quantize.o)
 .debug_frame   0x00012a78       0x8c include_lib/liba/AC521x/aac_enc_lib.a(sf_estim.o)
 .debug_frame   0x00012b04       0x38 include_lib/liba/AC521x/aac_enc_lib.a(spreading.o)
 .debug_frame   0x00012b3c       0x30 include_lib/liba/AC521x/aac_enc_lib.a(stat_bits.o)
 .debug_frame   0x00012b6c      0x1a0 include_lib/liba/AC521x/aac_enc_lib.a(transform.o)

.debug_line     0x00000000    0x978ef
 .debug_line    0x00000000    0x90139 cpu\AC521x\tools\main.or32.o
 .debug_line    0x00090139       0x2c include_lib/liba/AC521x/rtos.a(version.z.o)
 .debug_line    0x00090165       0xcb include_lib/liba/AC521x/rtos.a(port_asm.o)
 .debug_line    0x00090230       0x2c include_lib/liba/AC521x/sd1.a(version.z.o)
 .debug_line    0x0009025c       0x2c include_lib/liba/AC521x/fs.a(version.z.o)
 .debug_line    0x00090288       0x2c include_lib/liba/AC521x/video_dec_server.a(version.z.o)
 .debug_line    0x000902b4       0x2c include_lib/liba/AC521x/vm.a(version.z.o)
 .debug_line    0x000902e0       0x2c include_lib/liba/AC521x/audio_server.a(version.z.o)
 .debug_line    0x0009030c       0x2c include_lib/liba/AC521x/usb_server.a(version.z.o)
 .debug_line    0x00090338      0x1b8 include_lib/liba/AC521x/aac_enc_lib.a(AAC_E_SAMPLES.o)
 .debug_line    0x000904f0       0x4f include_lib/liba/AC521x/aac_enc_lib.a(aac_rom.o)
 .debug_line    0x0009053f      0x275 include_lib/liba/AC521x/aac_enc_lib.a(aacenc.o)
 .debug_line    0x000907b4      0x2a0 include_lib/liba/AC521x/aac_enc_lib.a(aacenc_core.o)
 .debug_line    0x00090a54     0x1538 include_lib/liba/AC521x/aac_enc_lib.a(adj_thr.o)
 .debug_line    0x00091f8c      0x228 include_lib/liba/AC521x/aac_enc_lib.a(band_nrg.o)
 .debug_line    0x000921b4      0x1e4 include_lib/liba/AC521x/aac_enc_lib.a(basicop2.o)
 .debug_line    0x00092398      0xb45 include_lib/liba/AC521x/aac_enc_lib.a(bit_cnt.o)
 .debug_line    0x00092edd       0xe7 include_lib/liba/AC521x/aac_enc_lib.a(bitbuffer.o)
 .debug_line    0x00092fc4      0x44e include_lib/liba/AC521x/aac_enc_lib.a(bitenc.o)
 .debug_line    0x00093412      0x433 include_lib/liba/AC521x/aac_enc_lib.a(block_switch.o)
 .debug_line    0x00093845       0xf5 include_lib/liba/AC521x/aac_enc_lib.a(channel_map.o)
 .debug_line    0x0009393a      0x5e9 include_lib/liba/AC521x/aac_enc_lib.a(dyn_bits.o)
 .debug_line    0x00093f23      0x46a include_lib/liba/AC521x/aac_enc_lib.a(grp_data.o)
 .debug_line    0x0009438d      0x1dc include_lib/liba/AC521x/aac_enc_lib.a(interface.o)
 .debug_line    0x00094569      0x2c9 include_lib/liba/AC521x/aac_enc_lib.a(line_pe.o)
 .debug_line    0x00094832      0x20c include_lib/liba/AC521x/aac_enc_lib.a(ms_stereo.o)
 .debug_line    0x00094a3e      0x3fc include_lib/liba/AC521x/aac_enc_lib.a(oper_32b.o)
 .debug_line    0x00094e3a      0x166 include_lib/liba/AC521x/aac_enc_lib.a(pre_echo_control.o)
 .debug_line    0x00094fa0      0x5b4 include_lib/liba/AC521x/aac_enc_lib.a(psy_configuration.o)
 .debug_line    0x00095554      0x6de include_lib/liba/AC521x/aac_enc_lib.a(psy_main.o)
 .debug_line    0x00095c32      0x4c9 include_lib/liba/AC521x/aac_enc_lib.a(qc_main.o)
 .debug_line    0x000960fb      0x4f6 include_lib/liba/AC521x/aac_enc_lib.a(quantize.o)
 .debug_line    0x000965f1      0x4c4 include_lib/liba/AC521x/aac_enc_lib.a(sf_estim.o)
 .debug_line    0x00096ab5      0x105 include_lib/liba/AC521x/aac_enc_lib.a(spreading.o)
 .debug_line    0x00096bba       0xd6 include_lib/liba/AC521x/aac_enc_lib.a(stat_bits.o)
 .debug_line    0x00096c90      0x9b0 include_lib/liba/AC521x/aac_enc_lib.a(transform.o)
 .debug_line    0x00097640       0x2a include_lib/liba/AC521x/aac_enc_lib.a(version.o)
 .debug_line    0x0009766a       0x2c include_lib/liba/AC521x/video_rec_server.a(version.z.o)
 .debug_line    0x00097696       0x2c include_lib/liba/AC521x/audio_dev.a(version.z.o)
 .debug_line    0x000976c2       0x2c include_lib/liba/AC521x/video_dev.a(version.z.o)
 .debug_line    0x000976ee       0x2c include_lib/liba/AC521x/ui.a(version.z.o)
 .debug_line    0x0009771a       0xcd include_lib/liba/AC521x/cpu.a(startup.o)
 .debug_line    0x000977e7       0x2c include_lib/liba/AC521x/cpu.a(version.z.o)
 .debug_line    0x00097813       0x2c include_lib/liba/AC521x/cpu_disp.a(version.z.o)
 .debug_line    0x0009783f       0x2c include_lib/liba/AC521x/cpu_video.a(version.z.o)
 .debug_line    0x0009786b       0x2c include_lib/liba/AC521x/mm.a(version.z.o)
 .debug_line    0x00097897       0x2c include_lib/liba/AC521x/lib_usb_syn.a(version.z.o)
 .debug_line    0x000978c3       0x2c include_lib/liba/AC521x/cbuf.a(version.z.o)

.debug_aranges  0x00000000       0x40
 .debug_aranges
                0x00000000       0x20 include_lib/liba/AC521x/rtos.a(port_asm.o)
 .debug_aranges
                0x00000020       0x20 include_lib/liba/AC521x/cpu.a(startup.o)

.version        0x00000000       0x27
 .version       0x00000000       0x27 include_lib/liba/AC521x/aac_enc_lib.a(version.o)
